ARM Linker, 4.1 [Build 894] [Standard]

==============================================================================

Section Cross References

    startup_sy03.o(STACK_TOP) refers (Special) to heapauxi.o(.text) for __use_two_region_memory
    startup_sy03.o(HEAP_BOTTOM) refers (Special) to heapauxi.o(.text) for __use_two_region_memory
    startup_sy03.o(HEAP_TOP) refers (Special) to heapauxi.o(.text) for __use_two_region_memory
    startup_sy03.o(RESET) refers (Special) to heapauxi.o(.text) for __use_two_region_memory
    startup_sy03.o(RESET) refers to startup_sy03.o(STACK_TOP) for __initial_sp
    startup_sy03.o(RESET) refers to startup_sy03.o(.text) for Reset_Handler
    startup_sy03.o(RESET) refers to usbprotocol.o(.text) for USB_Handler
    startup_sy03.o(RESET) refers to ssi.o(.text) for SSI_Handler
    startup_sy03.o(RESET) refers to uart.o(.text) for UART0_Handler
    startup_sy03.o(RESET) refers to swps.o(.text) for SWPS_Handler
    startup_sy03.o(RESET) refers to vpwm.o(.text) for VPWM_Handler
    startup_sy03.o(RESET) refers to sdsi.o(.text) for SDSI_Handler
    startup_sy03.o(RESET) refers to startup_sy03.o(HEAP_BOTTOM) for __heap_base
    startup_sy03.o(RESET) refers to startup_sy03.o(HEAP_TOP) for __heap_limit
    startup_sy03.o(.text) refers (Special) to heapauxi.o(.text) for __use_two_region_memory
    startup_sy03.o(.text) refers to system_sy03.o(.text) for SYS_GenSramKey
    startup_sy03.o(.text) refers to __main.o(!!!main) for __main
    system_sy03.o(.text) refers to rt_memclr.o(.text) for __aeabi_memclr4
    system_sy03.o(.text) refers to romfunc.o(.text) for RomFuncInit
    system_sy03.o(.text) refers to scm.o(.text) for SCM_LoadHFRoscTrim
    system_sy03.o(.text) refers to sy03_regs.o(.ARM.__AT_0x40000000) for ScmRegs
    efc.o(.text) refers to efc.o(i.EFC_WrProtect) for EFC_WrProtect
    efc.o(.text) refers to rt_memcpy.o(.text) for __aeabi_memcpy
    efc.o(.text) refers to rt_memcpy.o(.emb_text) for __aeabi_memcpy4
    efc.o(.text) refers to romfunc.o(NO_INIT) for _EFC_ConfigTiming
    efc.o(.text) refers to sy03_regs.o(.ARM.__AT_0x40054000) for EfcRegs
    retarget.o(.text) refers (Special) to use_no_semi.o(.text) for __use_no_semihosting_swi
    retarget.o(.text) refers to serial.o(.text) for sendchar
    retarget.o(.data) refers (Special) to use_no_semi.o(.text) for __use_no_semihosting_swi
    sci.o(.text) refers to scm.o(.text) for SCM_GetSysClk
    sci.o(.text) refers to aeabi_sdiv.o(.text) for __aeabi_uidivmod
    sci.o(.text) refers to sci.o(.data) for gfpSciPowerCtrl
    sci.o(.text) refers to sy03_regs.o(.ARM.__AT_0x40004000) for GpioRegs
    sci.o(.text) refers to sy03_regs.o(.ARM.__AT_0x40000000) for ScmRegs
    sci.o(.text) refers to sy03_regs.o(.ARM.__AT_0x40040000) for SciRegs
    sci.o(.text) refers to sci.o(.bss) for gATRCharIndex
    sci.o(.text) refers to sci.o(i.__ARM_common_ll_muluu) for __ARM_common_ll_muluu
    sci.o(.text) refers to lludiv.o(.text) for __aeabi_uldivmod
    sci.o(.text) refers to sci.o(.constdata) for FiTab
    scm.o(.text) refers to efc.o(.text) for EFC_ConfigTiming
    scm.o(.text) refers to sy03_regs.o(.ARM.__AT_0x40000000) for ScmRegs
    scm.o(.text) refers to romfunc.o(NO_INIT) for _SCM_SetSysClk
    scm.o(.text) refers to scm.o(.data) for gSysClk
    scm.o(.text) refers to system_sy03.o(.data) for SystemFrequency
    scm.o(.text) refers to serial.o(.data) for SerInit
    serial.o(.text) refers to aeabi_sdiv.o(.text) for __aeabi_uidivmod
    serial.o(.text) refers to sy03_regs.o(.ARM.__AT_0x40000000) for ScmRegs
    serial.o(.text) refers to sy03_regs.o(.ARM.__AT_0x40004000) for GpioRegs
    serial.o(.text) refers to sy03_regs.o(.ARM.__AT_0x4002C000) for Uart0Regs
    serial.o(.text) refers to system_sy03.o(.data) for SystemFrequency
    serial.o(.text) refers to serial.o(.data) for SerInit
    sqi.o(.text) refers to scm.o(.text) for _delay_us
    sqi.o(.text) refers to sqi.o(i.SQI_WrProtect) for SQI_WrProtect
    sqi.o(.text) refers to sqi.o(.data) for gSqiClkDiv
    sqi.o(.text) refers to sy03_regs.o(.ARM.__AT_0x40058000) for SqiRegs
    sqi.o(.text) refers to romfunc.o(NO_INIT) for _SQI_PageProg
    sqi.o(.text) refers to sy03_regs.o(.ARM.__AT_0x40000000) for ScmRegs
    sqi.o(.text) refers to sqi.o(i.__ARM_common_switch8) for __ARM_common_switch8
    sqi.o(.text) refers to rt_memcpy.o(.text) for __aeabi_memcpy
    sqi.o(.text) refers to sy03_regs.o(.ARM.__AT_0x40004000) for GpioRegs
    ssi.o(.text) refers to scm.o(.text) for _delay_us
    ssi.o(.text) refers to sy03_regs.o(.ARM.__AT_0x40004000) for GpioRegs
    ssi.o(.text) refers to sy03_regs.o(.ARM.__AT_0x40000000) for ScmRegs
    ssi.o(.text) refers to sy03_regs.o(.ARM.__AT_0x40028000) for SsiRegs
    ssi.o(.text) refers to ssi.o(.data) for gRxBuf
    swpm.o(.text) refers to scm.o(.text) for SCM_GetSysClk
    swpm.o(.text) refers to aeabi_sdiv.o(.text) for __aeabi_uidivmod
    swpm.o(.text) refers to sy03_regs.o(.ARM.__AT_0x40000000) for ScmRegs
    swpm.o(.text) refers to sy03_regs.o(.ARM.__AT_0x40038000) for SwpmRegs
    swpm.o(.text) refers to swpm.o(.data) for len
    swps.o(.text) refers to scm.o(.text) for SCM_GetSysClk
    swps.o(.text) refers to aeabi_sdiv.o(.text) for __aeabi_uidivmod
    swps.o(.text) refers to rt_memcpy.o(.text) for __aeabi_memcpy
    swps.o(.text) refers to sy03_regs.o(.ARM.__AT_0x40000000) for ScmRegs
    swps.o(.text) refers to sy03_regs.o(.ARM.__AT_0x40034000) for SwpsRegs
    swps.o(.text) refers to swps.o(.data) for gSwpsState
    swps.o(.text) refers to swps.o(.bss) for RxFrame
    gpio.o(.text) refers to sy03_regs.o(.ARM.__AT_0x40004000) for GpioRegs
    spi.o(.text) refers to spi.o(i.SCM_DisableModClk) for SCM_DisableModClk
    spi.o(.text) refers to spi.o(i.SCM_KeepModRst) for SCM_KeepModRst
    spi.o(.text) refers to spi.o(i.SCM_EnableModClk) for SCM_EnableModClk
    spi.o(.text) refers to spi.o(i.SCM_ReleaseModRst) for SCM_ReleaseModRst
    spi.o(.text) refers to scm.o(.text) for SCM_GetSysClk
    spi.o(.text) refers to aeabi_sdiv.o(.text) for __aeabi_uidivmod
    spi.o(.text) refers to sy03_regs.o(.ARM.__AT_0x40004000) for GpioRegs
    spi.o(.text) refers to sy03_regs.o(.ARM.__AT_0x40014000) for Spi0Regs
    spi.o(.text) refers to sy03_regs.o(.ARM.__AT_0x4006C000) for Spi1Regs
    uart.o(.text) refers to aeabi_sdiv.o(.text) for __aeabi_uidivmod
    uart.o(.text) refers to sy03_regs.o(.ARM.__AT_0x40004000) for GpioRegs
    uart.o(.text) refers to sy03_regs.o(.ARM.__AT_0x4002C000) for Uart0Regs
    uart.o(.text) refers to sy03_regs.o(.ARM.__AT_0x40000000) for ScmRegs
    uart.o(.text) refers to system_sy03.o(.data) for SystemFrequency
    uart.o(.text) refers to uart.o(.bss) for gUartRxFIFO
    i2c.o(.text) refers to aeabi_sdiv.o(.text) for __aeabi_uidivmod
    i2c.o(.text) refers to sy03_regs.o(.ARM.__AT_0x40030000) for I2C0Regs
    i2c.o(.text) refers to sy03_regs.o(.ARM.__AT_0x40000000) for ScmRegs
    i2c.o(.text) refers to sy03_regs.o(.ARM.__AT_0x40004000) for GpioRegs
    i2c.o(.text) refers to system_sy03.o(.data) for SystemFrequency
    acmp.o(.text) refers to scm.o(.text) for SCM_AnModPowerEnable
    acmp.o(.text) refers to sy03_regs.o(.ARM.__AT_0x40000000) for ScmRegs
    acmp.o(.text) refers to sy03_regs.o(.ARM.__AT_0x40004000) for GpioRegs
    acmp.o(.text) refers to sy03_regs.o(.ARM.__AT_0x40044000) for AcmpRegs
    vpwm.o(.text) refers to scm.o(.text) for SCM_GetSysClk
    vpwm.o(.text) refers to spi.o(i.SCM_DisableModClk) for SCM_DisableModClk
    vpwm.o(.text) refers to spi.o(i.SCM_KeepModRst) for SCM_KeepModRst
    vpwm.o(.text) refers to spi.o(i.SCM_EnableModClk) for SCM_EnableModClk
    vpwm.o(.text) refers to spi.o(i.SCM_ReleaseModRst) for SCM_ReleaseModRst
    vpwm.o(.text) refers to aeabi_sdiv.o(.text) for __aeabi_uidivmod
    vpwm.o(.text) refers to sy03_regs.o(.ARM.__AT_0x40004000) for GpioRegs
    vpwm.o(.text) refers to sy03_regs.o(.ARM.__AT_0x40048000) for VpwmRegs
    vpwm.o(.text) refers to vpwm.o(.data) for gpVoiceDataBuf
    bvd.o(.text) refers to scm.o(.text) for SCM_GetSysClk
    bvd.o(.text) refers to aeabi_sdiv.o(.text) for __aeabi_uidivmod
    bvd.o(.text) refers to sy03_regs.o(.ARM.__AT_0x40000000) for ScmRegs
    bvd.o(.text) refers to sy03_regs.o(.ARM.__AT_0x40060000) for BvdRegs
    trng.o(.text) refers to rt_memcpy.o(.text) for __aeabi_memcpy
    trng.o(.text) refers to sy03_regs.o(.ARM.__AT_0x40018000) for RngRegs
    trng.o(.text) refers to sy03_regs.o(.ARM.__AT_0x40000000) for ScmRegs
    tmr.o(.text) refers to sy03_regs.o(.ARM.__AT_0x40008000) for T0Regs
    tmr.o(.text) refers to sy03_regs.o(.ARM.__AT_0x40020000) for T1Regs
    tmr.o(.text) refers to sy03_regs.o(.ARM.__AT_0x40024000) for T2Regs
    tmr.o(.text) refers to sy03_regs.o(.ARM.__AT_0x40000000) for ScmRegs
    tmr.o(.text) refers to sy03_regs.o(.ARM.__AT_0x40004000) for GpioRegs
    rtc.o(.text) refers to aeabi_sdiv.o(.text) for __aeabi_idivmod
    rtc.o(.text) refers to rt_memcpy.o(.text) for __aeabi_memcpy
    rtc.o(.text) refers to sy03_regs.o(.ARM.__AT_0x40050000) for RtcRegs
    rtc.o(.text) refers to sy03_regs.o(.ARM.__AT_0x40000000) for ScmRegs
    rtc.o(.text) refers to rtc.o(.constdata) for gnDays
    crc.o(.text) refers to sy03_regs.o(.ARM.__AT_0x40000000) for ScmRegs
    crc.o(.text) refers to sy03_regs.o(.ARM.__AT_0x4005C000) for CrcRegs
    sflash.o(.text) refers to efc.o(.text) for EFC_ReadInfo
    sflash.o(.text) refers to aeabi_memset.o(.text) for __aeabi_memset
    sflash.o(.text) refers to efc.o(i.EFC_WrProtect) for EFC_WrProtect
    sflash.o(.text) refers to aeabi_sdiv.o(.text) for __aeabi_uidivmod
    sflash.o(.text) refers to rt_memcpy.o(.text) for __aeabi_memcpy
    sflash.o(.text) refers to sflash.o(.data) for gSF_End_Block
    sflash.o(.text) refers to sy03_regs.o(.ARM.__AT_0x40054000) for EfcRegs
    xflash.o(.text) refers to sqi.o(.text) for SQI_SectErase
    xflash.o(.text) refers to aeabi_memset.o(.text) for __aeabi_memset
    xflash.o(.text) refers to rt_memcpy.o(.text) for __aeabi_memcpy
    xflash.o(.text) refers to xflash.o(.data) for gXF_Capacity
    iso7816.o(.text) refers to scm.o(.text) for _delay_us
    iso7816.o(.text) refers to sy03_regs.o(.ARM.__AT_0x4003C000) for Iso7816Regs
    iso7816.o(.text) refers to sy03_regs.o(.ARM.__AT_0x40000000) for ScmRegs
    iso7816.o(.text) refers to sy03_regs.o(.ARM.__AT_0x40004000) for GpioRegs
    sdsi.o(.text) refers to sy03_regs.o(.ARM.__AT_0x50000000) for SdsiRegs
    sdsi.o(.text) refers to sdsi.o(.data) for gpSdsiDev
    sdsi.o(.text) refers to rt_memclr.o(.text) for __aeabi_memclr4
    sdsi.o(.text) refers to sy03_regs.o(.ARM.__AT_0x40004000) for GpioRegs
    sdsi.o(.text) refers to sy03_regs.o(.ARM.__AT_0x40000000) for ScmRegs
    sdsi.o(.text) refers to sy03_regs.o(.ARM.__AT_0x20008C00) for SdsiADMA2DescTbl
    sdi.o(.text) refers to sdi.o(.data) for gFlush
    sdi.o(.text) refers to sy03_regs.o(.ARM.__AT_0x50020000) for SdiRegs
    sdi.o(.text) refers to sdi.o(.bss) for gSdmcPara
    sdi.o(.text) refers to scm.o(.text) for SCM_GetSysClk
    sdi.o(.text) refers to aeabi_sdiv.o(.text) for __aeabi_uidivmod
    sdi.o(.text) refers to rt_memclr.o(.text) for __aeabi_memclr4
    sdi.o(.text) refers to llshl.o(.text) for __aeabi_llsl
    sdi.o(.text) refers to llushr.o(.text) for __aeabi_llsr
    sdi.o(.text) refers to sy03_regs.o(.ARM.__AT_0x40000000) for ScmRegs
    sdi.o(.text) refers to sy03_regs.o(.ARM.__AT_0x40004000) for GpioRegs
    sdi.o(.text) refers to rt_memcpy.o(.text) for __aeabi_memcpy
    bulkitem.o(.text) refers to usbbase.o(.text) for USB_BulkSend
    bulkitem.o(.text) refers to rt_memcpy.o(.emb_text) for __aeabi_memcpy4
    bulkitem.o(.text) refers to rt_memclr.o(.text) for __aeabi_memclr4
    bulkitem.o(.text) refers to bulkitem.o(.data) for gSensePtr
    bulkitem.o(.text) refers to bulkusb.o(.data) for glDiskCap
    bulkitem.o(.text) refers to bulkitem.o(.constdata) for gsenseArray
    bulkitem.o(.text) refers to bulkusb.o(.text) for SendCSWBack
    bulkusb.o(.text) refers to bulkitem.o(.text) for DoSCSICmd
    bulkusb.o(.text) refers to usbbase.o(.text) for USB_BulkReceive
    bulkusb.o(.text) refers to bulkusb.o(.data) for glDiskCap
    bulkusb.o(.text) refers to sy03_regs.o(.ARM.__AT_0x50010000) for UsbRegs
    ctrlitem.o(.text) refers to usbbase.o(.text) for USB_SendACK
    ctrlitem.o(.text) refers to ctrlitem.o(.constdata) for DeviceDescFS
    ctrlitem.o(.text) refers to sy03_regs.o(.ARM.__AT_0x50010000) for UsbRegs
    ctrlitem.o(.text) refers to ctrlitem.o(.bss) for gSetupStatus
    ctrlusb.o(.text) refers to usbbase.o(.text) for USB_SetupReceive
    ctrlusb.o(.text) refers to ctrlitem.o(.text) for Class_SendMaxLun
    ctrlusb.o(.text) refers to sy03_regs.o(.ARM.__AT_0x50010000) for UsbRegs
    ctrlusb.o(.text) refers to ctrlusb.o(.constdata) for StandardDeviceRequest
    ctrlusb.o(.constdata) refers to ctrlitem.o(.text) for Chap9_GetStatus
    usbbase.o(.text) refers to aeabi_sdiv.o(.text) for __aeabi_uidivmod
    usbbase.o(.text) refers to sy03_regs.o(.ARM.__AT_0x50010000) for UsbRegs
    usbbase.o(.text) refers to usbprotocol.o(.data) for gUSBFlag
    usbbase.o(.text) refers to usbbase.o(.data) for gUsbMode
    usbbase.o(.text) refers to scm.o(.text) for SCM_UsbPhySet
    usbbase.o(.text) refers to sy03_regs.o(.ARM.__AT_0x40000000) for ScmRegs
    usbprotocol.o(.text) refers to scm.o(.text) for SCM_SetSysClk
    usbprotocol.o(.text) refers to usbbase.o(.text) for USB_Reset
    usbprotocol.o(.text) refers to ctrlusb.o(.text) for USB_SetupHandle
    usbprotocol.o(.text) refers to bulkusb.o(.text) for USB_CBWHandle
    usbprotocol.o(.text) refers to sy03_regs.o(.ARM.__AT_0x50010000) for UsbRegs
    usbprotocol.o(.text) refers to usbbase.o(.data) for gUsbMode
    usbprotocol.o(.text) refers to usbprotocol.o(.data) for gIntrIn
    usbprotocol.o(.text) refers to sy03_regs.o(.ARM.__AT_0x40000000) for ScmRegs
    main.o(.text) refers to _printf_percent.o(.ARM.Collect$$_printf_percent$$00000000) for _printf_percent
    main.o(.text) refers to _printf_d.o(.ARM.Collect$$_printf_percent$$00000009) for _printf_d
    main.o(.text) refers to _printf_dec.o(.text) for _printf_int_dec
    main.o(.text) refers to scm.o(.text) for SCM_SetSysClk
    main.o(.text) refers to sd_systemapp.o(.text) for SD_AppInit
    main.o(.text) refers to __2printf.o(.text) for __2printf
    main.o(.text) refers to sflash.o(.text) for SF_Init
    main.o(.text) refers to filesystem.o(.text) for FS_Init
    main.o(.text) refers to trng.o(.text) for Trng_Init
    main.o(.text) refers to rt_memclr.o(.text) for __aeabi_memclr
    main.o(.text) refers to sy03_regs.o(.ARM.__AT_0x40054000) for EfcRegs
    main.o(.text) refers to command.o(.data) for gCosVersion
    main.o(.text) refers to sdmemacc.o(.bss) for gRespDataBuf
    main.o(.text) refers to sy03_regs.o(.ARM.__AT_0x40000000) for ScmRegs
    main.o(.text) refers to sdmemacc.o(.data) for gSystemInited
    command.o(.text) refers to rt_memclr.o(.text) for __aeabi_memclr
    command.o(.text) refers to rt_memcpy.o(.text) for __aeabi_memcpy
    command.o(.text) refers to sms4.o(.text) for SMS4_Init
    command.o(.text) refers to memcmp.o(.text) for memcmp
    command.o(.text) refers to log.o(.text) for dbg_print_log
    command.o(.text) refers to sdmemacc.o(.bss) for gApduResp
    command.o(.text) refers to command.o(.data) for gCurSAStatus
    command.o(.text) refers to sdmemacc.o(.data) for gApduHeader
    command.o(.text) refers to command.o(.constdata) for __FUNCTION__
    command.o(.text) refers to command.o(.bss) for gAPPState
    command.o(.text) refers to filesystem.o(.text) for FS_Format
    command.o(.text) refers to efc.o(.text) for EFC_ClrProgFlag
    command.o(.text) refers to efc.o(i.EFC_WrProtect) for EFC_WrProtect
    command.o(.text) refers to aeabi_memset.o(.text) for __aeabi_memset
    command.o(.text) refers to sm1.o(.text) for SM1_Init
    command.o(.text) refers to ssf33alg.o(.text) for SSF33_Init
    command.o(.text) refers to aes.o(.text) for _Aes_Run
    command.o(.text) refers to sm3.o(.text) for SM3_Final
    command.o(.text) refers to sha-1.o(.text) for SHA1_Final
    command.o(.text) refers to sha-256.o(.text) for SHA256_Final
    command.o(.text) refers to sm2.o(.text) for SM3_GetSignIDValue
    command.o(.text) refers to syrsa.o(.text) for RSA_PrivateDecrypt
    command.o(.text) refers to sflash.o(.text) for SF_ReadData
    command.o(.text) refers to nn.o(.text) for NN_Decode
    command.o(.text) refers to rt_memcpy.o(.emb_text) for __aeabi_memcpy4
    command.o(.text) refers to trng.o(.text) for Trng_GenRandom
    command.o(.text) refers to strcpy.o(.text) for strcpy
    command.o(.text) refers to r_keygen.o(.text) for RSA_GenKeyPair
    command.o(.text) refers to dflti.o(.text) for __aeabi_i2d
    command.o(.text) refers to ddiv.o(.text) for __aeabi_ddiv
    command.o(.text) refers to dmul.o(.text) for __aeabi_dmul
    command.o(.text) refers to dfixui.o(.text) for __aeabi_d2uiz
    command.o(.text) refers to aeabi_sdiv.o(.text) for __aeabi_idivmod
    command.o(.text) refers to strlen.o(.text) for strlen
    command.o(.text) refers to filesystem.o(.data) for gCurrentDirectoryCluster
    command.o(.text) refers to uwrite4.o(.text) for __aeabi_uwrite4
    command.o(.text) refers to uread4.o(.text) for __aeabi_uread4
    command.o(.text) refers to sqi.o(i.__ARM_common_switch8) for __ARM_common_switch8
    sdmemacc.o(.text) refers to rt_memcpy.o(.text) for __aeabi_memcpy
    sdmemacc.o(.text) refers to rt_memclr.o(.text) for __aeabi_memclr
    sdmemacc.o(.text) refers to log.o(.text) for dbg_print_log
    sdmemacc.o(.text) refers to commandex.o(.text) for DoAS5xxCMDEx
    sdmemacc.o(.text) refers to command.o(.text) for DoAS5xxCMD
    sdmemacc.o(.text) refers to sm1.o(.text) for SM1_Run
    sdmemacc.o(.text) refers to sms4.o(.text) for SMS4_Run
    sdmemacc.o(.text) refers to sdmemacc.o(.constdata) for gDBR
    sdmemacc.o(.text) refers to sdmemacc.o(.bss) for gApduResp
    sdmemacc.o(.text) refers to sdmemacc.o(.data) for gApduHeader
    sdmemacc.o(.text) refers to sd_systemapp.o(.bss) for SdsiFile
    sdmemacc.o(.text) refers to command.o(.data) for gLastSessionKeyID
    sdmemacc.o(.text) refers to command.o(.bss) for gSessionKey
    sdmemacc.o(.text) refers to aes.o(.text) for _Aes_Run
    log.o(.text) refers to _printf_pad.o(.text) for _printf_pre_padding
    log.o(.text) refers to _printf_percent.o(.ARM.Collect$$_printf_percent$$00000000) for _printf_percent
    log.o(.text) refers to _printf_d.o(.ARM.Collect$$_printf_percent$$00000009) for _printf_d
    log.o(.text) refers to _printf_s.o(.ARM.Collect$$_printf_percent$$00000014) for _printf_s
    log.o(.text) refers to _printf_dec.o(.text) for _printf_int_dec
    log.o(.text) refers to _printf_str.o(.text) for _printf_str
    log.o(.text) refers to _printf_x.o(.ARM.Collect$$_printf_percent$$0000000C) for _printf_x
    log.o(.text) refers to _printf_hex_int_ll_ptr.o(.text) for _printf_longlong_hex
    log.o(.text) refers to c89vsnprintf.o(.text) for __c89vsnprintf
    log.o(.text) refers to __2printf.o(.text) for __2printf
    log.o(.text) refers to log.o(.bss) for output
    sd_systemapp.o(.text) refers to _printf_percent.o(.ARM.Collect$$_printf_percent$$00000000) for _printf_percent
    sd_systemapp.o(.text) refers to _printf_x.o(.ARM.Collect$$_printf_percent$$0000000C) for _printf_x
    sd_systemapp.o(.text) refers to _printf_hex_int_ll_ptr.o(.text) for _printf_longlong_hex
    sd_systemapp.o(.text) refers to _printf_d.o(.ARM.Collect$$_printf_percent$$00000009) for _printf_d
    sd_systemapp.o(.text) refers to _printf_dec.o(.text) for _printf_int_dec
    sd_systemapp.o(.text) refers to strlen.o(.text) for strlen
    sd_systemapp.o(.text) refers to ff.o(.text) for f_opendir
    sd_systemapp.o(.text) refers to log.o(.text) for dbg_print_log
    sd_systemapp.o(.text) refers to rt_memclr.o(.text) for __aeabi_memclr4
    sd_systemapp.o(.text) refers to strcpy.o(.text) for strcpy
    sd_systemapp.o(.text) refers to strcat.o(.text) for strcat
    sd_systemapp.o(.text) refers to strcmp.o(.text) for strcmp
    sd_systemapp.o(.text) refers to __2printf.o(.text) for __2printf
    sd_systemapp.o(.text) refers to sdi.o(.text) for SDI_Init
    sd_systemapp.o(.text) refers to sqi.o(.text) for SQI_Init
    sd_systemapp.o(.text) refers to sdmemacc.o(.text) for SD_CmdProc
    sd_systemapp.o(.text) refers to sd_systemapp.o(.constdata) for __FUNCTION__
    sd_systemapp.o(.text) refers to sd_systemapp.o(.bss) for SdsiFile
    sd_systemapp.o(.text) refers to sd_systemapp.o(.data) for gSDICapacity
    sd_systemapp.o(.text) refers to sy03_regs.o(.ARM.__AT_0x40000000) for ScmRegs
    sd_systemapp.o(.text) refers to sdi.o(.bss) for gSdmcPara
    sd_systemapp.o(.text) refers to sdsi.o(.text) for SDSI_Init
    sd_systemapp.o(.text) refers to sy03_regs.o(.ARM.__AT_0x40004000) for GpioRegs
    sd_systemapp.o(.data) refers to sd_systemapp.o(.text) for SD_Init
    commandex.o(.text) refers to command.o(.text) for SetCmdResult
    commandex.o(.text) refers to xflash.o(.text) for XF_WriteData
    commandex.o(.text) refers to log.o(.text) for dbg_print_log
    commandex.o(.text) refers to sdmemacc.o(.data) for gApduHeader
    commandex.o(.text) refers to sdmemacc.o(.bss) for gApduBody
    commandex.o(.text) refers to commandex.o(.constdata) for __FUNCTION__
    testssf33.o(.text) refers to ssf33alg.o(.text) for SSF33_Init
    testssf33.o(.text) refers to memcmp.o(.text) for memcmp
    testssf33.o(.text) refers to __2printf.o(.text) for __2printf
    testssf33.o(.text) refers to testssf33.o(.constdata) for .constdata
    testaes.o(.text) refers to rt_memcpy.o(.emb_text) for __aeabi_memcpy4
    testaes.o(.text) refers to aes.o(.text) for AES_Init
    testaes.o(.text) refers to __2printf.o(.text) for __2printf
    testaes.o(.text) refers to memcmp.o(.text) for memcmp
    testaes.o(.text) refers to rt_memclr.o(.text) for __aeabi_memclr4
    testaes.o(.text) refers to aeabi_memset.o(.text) for __aeabi_memset
    testaes.o(.text) refers to testaes.o(.constdata) for .constdata
    testalg.o(.text) refers to _printf_percent.o(.ARM.Collect$$_printf_percent$$00000000) for _printf_percent
    testalg.o(.text) refers to _printf_s.o(.ARM.Collect$$_printf_percent$$00000014) for _printf_s
    testalg.o(.text) refers to _printf_str.o(.text) for _printf_str
    testalg.o(.text) refers to algbase.o(.text) for AlgLib_GetVersion
    testalg.o(.text) refers to __2printf.o(.text) for __2printf
    testalg.o(.text) refers to testssf33.o(.text) for TestSSF33ECB
    testalg.o(.text) refers to testsm1.o(.text) for TestSM1ECB
    testalg.o(.text) refers to testsms4.o(.text) for TestSMS4ECB
    testalg.o(.text) refers to testaes.o(.text) for TestAes128ECB
    testalg.o(.text) refers to testdes.o(.text) for TestDesCBC
    testalg.o(.text) refers to testrandrom.o(.text) for TestTrueRand
    testalg.o(.text) refers to testrsa.o(.text) for TestRSA1024
    testalg.o(.text) refers to testhash.o(.text) for TestMD5
    testalg.o(.text) refers to testsm3.o(.text) for TestSM3
    testalg.o(.text) refers to testsm2.o(.text) for TestSM2Sign
    testalg.o(.text) refers to testecc.o(.text) for TestECDSA
    testdes.o(.text) refers to rt_memclr.o(.text) for __aeabi_memclr4
    testdes.o(.text) refers to rt_memcpy.o(.emb_text) for __aeabi_memcpy4
    testdes.o(.text) refers to des.o(.text) for DES_Init
    testdes.o(.text) refers to __2printf.o(.text) for __2printf
    testdes.o(.text) refers to memcmp.o(.text) for memcmp
    testdes.o(.text) refers to testdes.o(.constdata) for .constdata
    testecc.o(.text) refers to rt_memcpy.o(.emb_text) for __aeabi_memcpy4
    testecc.o(.text) refers to ellipticcurve_zp.o(.text) for ECDSA_GenKey
    testecc.o(.text) refers to __2printf.o(.text) for __2printf
    testecc.o(.text) refers to sha-1.o(.text) for SHA1_Init
    testecc.o(.text) refers to strlen.o(.text) for strlen
    testecc.o(.text) refers to testecc.o(.constdata) for .constdata
    testhash.o(.text) refers to md5.o(.text) for MD5_Init
    testhash.o(.text) refers to sha-1.o(.text) for SHA1_Init
    testhash.o(.text) refers to sha-256.o(.text) for SHA256_Init
    testrandrom.o(.text) refers to trng.o(.text) for Trng_Init
    testrandrom.o(.text) refers to __2printf.o(.text) for __2printf
    testrsa.o(.text) refers to __2printf.o(.text) for __2printf
    testrsa.o(.text) refers to r_keygen.o(.text) for RSA_GenKeyPair
    testrsa.o(.text) refers to syrsa.o(.text) for RSA_PubKeyOpt
    testrsa.o(.text) refers to command.o(.bss) for n
    testrsa.o(.text) refers to command.o(.data) for e
    testsm1.o(.text) refers to sm1.o(.text) for SM1_Init
    testsm1.o(.text) refers to memcmp.o(.text) for memcmp
    testsm1.o(.text) refers to __2printf.o(.text) for __2printf
    testsm1.o(.text) refers to rt_memcpy.o(.emb_text) for __aeabi_memcpy4
    testsm2.o(.text) refers to rt_memcpy.o(.emb_text) for __aeabi_memcpy4
    testsm2.o(.text) refers to __2printf.o(.text) for __2printf
    testsm2.o(.text) refers to rt_memcpy.o(.text) for __aeabi_memcpy
    testsm2.o(.text) refers to sm2.o(.text) for SM2_GenKey
    testsm2.o(.text) refers to strlen.o(.text) for strlen
    testsm2.o(.text) refers to memcmp.o(.text) for memcmp
    testsm2.o(.text) refers to testsm2.o(.constdata) for .constdata
    testsm3.o(.text) refers to sm3.o(.text) for SM3_Init
    testsms4.o(.text) refers to sms4.o(.text) for SMS4_Init
    testsms4.o(.text) refers to testsms4.o(.constdata) for .constdata
    ff.o(.text) refers to _printf_percent.o(.ARM.Collect$$_printf_percent$$00000000) for _printf_percent
    ff.o(.text) refers to _printf_x.o(.ARM.Collect$$_printf_percent$$0000000C) for _printf_x
    ff.o(.text) refers to _printf_hex_int_ll_ptr.o(.text) for _printf_longlong_hex
    ff.o(.text) refers to diskio.o(.text) for disk_write
    ff.o(.text) refers to ff.o(.data) for FatFs
    ff.o(.text) refers to aeabi_sdiv.o(.text) for __aeabi_uidivmod
    ff.o(.text) refers to __2printf.o(.text) for __2printf
    diskio.o(.text) refers to _printf_percent.o(.ARM.Collect$$_printf_percent$$00000000) for _printf_percent
    diskio.o(.text) refers to _printf_d.o(.ARM.Collect$$_printf_percent$$00000009) for _printf_d
    diskio.o(.text) refers to _printf_dec.o(.text) for _printf_int_dec
    diskio.o(.text) refers to sdi.o(.text) for SDI_ReadBlock
    diskio.o(.text) refers to sqi.o(.text) for SQI_ReadData
    diskio.o(.text) refers to __2printf.o(.text) for __2printf
    diskio.o(.text) refers to sd_systemapp.o(.data) for gSDICapacity
    romfunc.o(.text) refers to romfunc.o(NO_INIT) for _SCM_SetSysClk
    sha-1.o(.text) refers to rt_memclr.o(.text) for __aeabi_memclr4
    sha-1.o(.text) refers to rt_memcpy.o(.text) for __aeabi_memcpy
    sm3.o(.text) refers to rt_memcpy.o(.text) for __aeabi_memcpy
    sm3.o(.text) refers to rt_memclr.o(.text) for __aeabi_memclr4
    sm3.o(.text) refers to rt_memcpy.o(.emb_text) for __aeabi_memcpy4
    md5.o(.text) refers to rt_memclr.o(.text) for __aeabi_memclr4
    md5.o(.text) refers to rt_memcpy.o(.text) for __aeabi_memcpy
    md5.o(.text) refers to md5.o(.constdata) for PADDING
    sha-256.o(.text) refers to rt_memcpy.o(.text) for __aeabi_memcpy
    sha-256.o(.text) refers to sha-256.o(.constdata) for sha2_padding
    aes.o(.text) refers to sqi.o(i.__ARM_common_switch8) for __ARM_common_switch8
    aes.o(.text) refers to aes.o(.constdata) for Te2
    aes.o(.text) refers to rt_memcpy.o(.text) for __aeabi_memcpy
    sm1.o(.text) refers to algbase.o(.text) for StartNoise
    sm1.o(.text) refers to rt_memcpy.o(.text) for __aeabi_memcpy
    sm1.o(.text) refers to sm1.o(.constdata) for .constdata
    algbase.o(.text) refers to strcpy.o(.text) for strcpy
    algbase.o(.text) refers to algbase.o(.data) for gRefresh
    des.o(.text) refers to algbase.o(.text) for RefreshCache
    des.o(.text) refers to rt_memcpy.o(.text) for __aeabi_memcpy
    des.o(.text) refers to rt_memcpy.o(.emb_text) for __aeabi_memcpy4
    des.o(.text) refers to memcmp.o(.text) for memcmp
    des.o(.text) refers to rt_memclr.o(.text) for __aeabi_memclr
    des.o(.text) refers to des.o(.bss) for gDesKey
    sms4.o(.text) refers to rt_memcpy.o(.emb_text) for __aeabi_memcpy4
    sms4.o(.text) refers to rt_memcpy.o(.text) for __aeabi_memcpy
    sms4.o(.text) refers to algbase.o(.text) for StartNoise
    sms4.o(.text) refers to sms4.o(.constdata) for SM4_S
    ssf33alg.o(.text) refers to rt_memcpy.o(.text) for __aeabi_memcpy
    ssf33alg.o(.text) refers to algbase.o(.text) for ChangeFmt
    ssf33alg.o(.text) refers to ssf33.o(.text) for SSF33_Encrypt_ECB
    nn.o(.text) refers to algbase.o(.text) for RefreshCache
    nn.o(.text) refers to nn.o(.data) for RsaStartCode
    nn.o(.text) refers to rt_memclr.o(.text) for __aeabi_memclr4
    nn.o(.text) refers to trng.o(.text) for Prng_GenRandom
    r_keygen.o(.text) refers to nn.o(.text) for NN_Sub1
    r_keygen.o(.text) refers to prime.o(.text) for GeneratePrime
    r_keygen.o(.text) refers to rt_memcpy.o(.emb_text) for __aeabi_memcpy4
    r_keygen.o(.text) refers to syrsa.o(.text) for RSA_PriKeyOpt
    syrsa.o(.text) refers to nn.o(.text) for NN_Decode
    syrsa.o(.text) refers to rt_memcpy.o(.emb_text) for __aeabi_memcpy4
    syrsa.o(.text) refers to algbase.o(.text) for StartNoise
    syrsa.o(.text) refers to rt_memclr.o(.text) for __aeabi_memclr
    syrsa.o(.text) refers to rt_memcpy.o(.text) for __aeabi_memcpy
    ellipticcurve_zp.o(.text) refers to elliptic-ffp.o(.text) for InitCurve
    ellipticcurve_zp.o(.text) refers to bigdigits.o(.text) for NN_Random
    ellipticcurve_zp.o(.text) refers to nn.o(.text) for NN_Encode
    ellipticcurve_zp.o(.text) refers to rt_memcpy.o(.emb_text) for __aeabi_memcpy4
    sm2.o(.text) refers to sm3.o(.text) for SM3_Init
    sm2.o(.text) refers to elliptic-ffp.o(.text) for InitCurve
    sm2.o(.text) refers to rt_memcpy.o(.text) for __aeabi_memcpy
    sm2.o(.text) refers to bigdigits.o(.text) for NN_Random
    sm2.o(.text) refers to nn.o(.text) for NN_Encode
    sm2.o(.text) refers to rt_memcpy.o(.emb_text) for __aeabi_memcpy4
    sm2.o(.text) refers to rt_memclr.o(.text) for __aeabi_memclr4
    sm2.o(.text) refers to memcmp.o(.text) for memcmp
    filesystem.o(.text) refers to sflash.o(.text) for SF_ReadData
    filesystem.o(.text) refers to rt_memclr.o(.text) for __aeabi_memclr
    filesystem.o(.text) refers to filesystem.o(.data) for gCurrentFileCluster
    filesystem.o(.text) refers to strcmp.o(.text) for strcmp
    filesystem.o(.text) refers to aeabi_memset.o(.text) for __aeabi_memset
    filesystem.o(.text) refers to strcpy.o(.text) for strcpy
    filesystem.o(.text) refers to uwrite4.o(.text) for __aeabi_uwrite4
    filesystem.o(.text) refers to rt_memcpy.o(.text) for __aeabi_memcpy
    filesystem.o(.text) refers to command.o(.constdata) for gPwd
    filesystem.o(.text) refers to strlen.o(.text) for strlen
    filesystem.o(.text) refers to command.o(.data) for gCardStatus
    filesystem.o(.text) refers to rt_memcpy.o(.emb_text) for __aeabi_memcpy4
    ssf33.o(.text) refers to ssf33.o(.constdata) for Sbox
    prime.o(.text) refers to nn.o(.text) for NN_Assign
    prime.o(.text) refers to rt_memclr.o(.text) for __aeabi_memclr
    prime.o(.text) refers to r_random.o(.text) for R_GenerateBytes
    prime.o(.text) refers to prime.o(.constdata) for lnz
    bigdigits.o(.text) refers to trng.o(.text) for Trng_Init
    bigdigits.o(.text) refers to nn.o(.text) for NN_Assign
    elliptic-ffp.o(.text) refers to nn.o(.text) for NN_Assign
    elliptic-ffp.o(.text) refers to bigdigits.o(.text) for NN_ModAdd
    elliptic-ffp.o(.text) refers to hardecc.o(.text) for ECC_PointAdd
    elliptic-ffp.o(.text) refers to elliptic-ffp.o(.constdata) for ECDSA256
    r_random.o(.text) refers to trng.o(.text) for Trng_Init
    hardecc.o(.text) refers to rt_memcpy.o(.emb_text) for __aeabi_memcpy4
    hardecc.o(.text) refers to algbase.o(.text) for RefreshCache
    hardecc.o(.text) refers to hardecc.o(.constdata) for .constdata
    hardecc.o(.text) refers to nn.o(.data) for RsaStartCode
    hardecc.o(.text) refers to nn.o(.text) for NN_GetResult
    hardecc.o(.text) refers to trng.o(.text) for Prng_GenRandom
    hardecc.o(.text) refers to rt_memclr.o(.text) for __aeabi_memclr4
    c89vsnprintf.o(.text) refers (Special) to _printf_a.o(.ARM.Collect$$_printf_percent$$00000006) for _printf_a
    c89vsnprintf.o(.text) refers (Special) to _printf_c.o(.ARM.Collect$$_printf_percent$$00000013) for _printf_c
    c89vsnprintf.o(.text) refers (Special) to _printf_charcount.o(.text) for _printf_charcount
    c89vsnprintf.o(.text) refers (Special) to _printf_d.o(.ARM.Collect$$_printf_percent$$00000009) for _printf_d
    c89vsnprintf.o(.text) refers (Special) to _printf_e.o(.ARM.Collect$$_printf_percent$$00000004) for _printf_e
    c89vsnprintf.o(.text) refers (Special) to _printf_f.o(.ARM.Collect$$_printf_percent$$00000003) for _printf_f
    c89vsnprintf.o(.text) refers (Special) to printf1.o(x$fpl$printf1) for _printf_fp_dec
    c89vsnprintf.o(.text) refers (Special) to _printf_g.o(.ARM.Collect$$_printf_percent$$00000005) for _printf_g
    c89vsnprintf.o(.text) refers (Special) to _printf_i.o(.ARM.Collect$$_printf_percent$$00000008) for _printf_i
    c89vsnprintf.o(.text) refers (Special) to _printf_dec.o(.text) for _printf_int_dec
    c89vsnprintf.o(.text) refers (Special) to _printf_l.o(.ARM.Collect$$_printf_percent$$00000012) for _printf_l
    c89vsnprintf.o(.text) refers (Special) to _printf_lc.o(.ARM.Collect$$_printf_percent$$00000015) for _printf_lc
    c89vsnprintf.o(.text) refers (Special) to _printf_ll.o(.ARM.Collect$$_printf_percent$$00000007) for _printf_ll
    c89vsnprintf.o(.text) refers (Special) to _printf_lld.o(.ARM.Collect$$_printf_percent$$0000000E) for _printf_lld
    c89vsnprintf.o(.text) refers (Special) to _printf_lli.o(.ARM.Collect$$_printf_percent$$0000000D) for _printf_lli
    c89vsnprintf.o(.text) refers (Special) to _printf_llo.o(.ARM.Collect$$_printf_percent$$00000010) for _printf_llo
    c89vsnprintf.o(.text) refers (Special) to _printf_llu.o(.ARM.Collect$$_printf_percent$$0000000F) for _printf_llu
    c89vsnprintf.o(.text) refers (Special) to _printf_llx.o(.ARM.Collect$$_printf_percent$$00000011) for _printf_llx
    c89vsnprintf.o(.text) refers (Special) to _printf_longlong_dec.o(.text) for _printf_longlong_dec
    c89vsnprintf.o(.text) refers (Special) to _printf_hex_int_ll_ptr.o(.text) for _printf_longlong_hex
    c89vsnprintf.o(.text) refers (Special) to _printf_oct_int_ll.o(.text) for _printf_longlong_oct
    c89vsnprintf.o(.text) refers (Special) to _printf_ls.o(.ARM.Collect$$_printf_percent$$00000016) for _printf_ls
    c89vsnprintf.o(.text) refers (Special) to _printf_n.o(.ARM.Collect$$_printf_percent$$00000001) for _printf_n
    c89vsnprintf.o(.text) refers (Special) to _printf_o.o(.ARM.Collect$$_printf_percent$$0000000B) for _printf_o
    c89vsnprintf.o(.text) refers (Special) to _printf_p.o(.ARM.Collect$$_printf_percent$$00000002) for _printf_p
    c89vsnprintf.o(.text) refers (Special) to _printf_percent.o(.ARM.Collect$$_printf_percent$$00000000) for _printf_percent
    c89vsnprintf.o(.text) refers (Special) to _printf_pad.o(.text) for _printf_post_padding
    c89vsnprintf.o(.text) refers (Special) to _printf_s.o(.ARM.Collect$$_printf_percent$$00000014) for _printf_s
    c89vsnprintf.o(.text) refers (Special) to _printf_str.o(.text) for _printf_str
    c89vsnprintf.o(.text) refers (Special) to _printf_truncate.o(.text) for _printf_truncate_signed
    c89vsnprintf.o(.text) refers (Special) to _printf_u.o(.ARM.Collect$$_printf_percent$$0000000A) for _printf_u
    c89vsnprintf.o(.text) refers (Special) to _printf_wctomb.o(.text) for _printf_wctomb
    c89vsnprintf.o(.text) refers (Special) to _printf_x.o(.ARM.Collect$$_printf_percent$$0000000C) for _printf_x
    c89vsnprintf.o(.text) refers to _printf_char_common.o(.text) for _printf_char_common
    c89vsnprintf.o(.text) refers to _sputc.o(.text) for _sputc
    c89vsnprintf.o(.text) refers to _snputc.o(.text) for _snputc
    __2printf.o(.text) refers to _printf_char_file.o(.text) for _printf_char_file
    __2printf.o(.text) refers to retarget.o(.data) for __stdout
    noretval__2printf.o(.text) refers to _printf_char_file.o(.text) for _printf_char_file
    noretval__2printf.o(.text) refers to retarget.o(.data) for __stdout
    __printf.o(.text) refers to _printf_percent.o(.ARM.Collect$$_printf_percent$$00000000) for _printf_percent
    _printf_str.o(.text) refers (Special) to _printf_char.o(.text) for _printf_cs_common
    _printf_str.o(.text) refers (Weak) to _printf_pad.o(.text) for _printf_pre_padding
    _printf_str.o(.text) refers (Weak) to _printf_pad.o(.text) for _printf_post_padding
    _printf_dec.o(.text) refers (Weak) to _printf_truncate.o(.text) for _printf_truncate_signed
    _printf_dec.o(.text) refers (Weak) to _printf_truncate.o(.text) for _printf_truncate_unsigned
    _printf_dec.o(.text) refers to rtudiv10.o(.text) for __rt_udiv10
    _printf_dec.o(.text) refers to _printf_intcommon.o(.text) for _printf_int_common
    _printf_hex_ll.o(.text) refers to _printf_intcommon.o(.text) for _printf_int_common
    _printf_hex_ll.o(.text) refers to _printf_hex_ll.o(.constdata) for .constdata
    _printf_hex_int.o(.text) refers (Weak) to _printf_truncate.o(.text) for _printf_truncate_unsigned
    _printf_hex_int.o(.text) refers to _printf_intcommon.o(.text) for _printf_int_common
    _printf_hex_int.o(.text) refers to _printf_hex_int.o(.constdata) for .constdata
    _printf_hex_int_ll.o(.text) refers to _printf_intcommon.o(.text) for _printf_int_common
    _printf_hex_int_ll.o(.text) refers (Weak) to _printf_truncate.o(.text) for _printf_truncate_unsigned
    _printf_hex_int_ll.o(.text) refers to _printf_hex_int_ll.o(.constdata) for .constdata
    _printf_hex_ptr.o(.text) refers to _printf_intcommon.o(.text) for _printf_int_common
    _printf_hex_ptr.o(.text) refers to _printf_hex_ptr.o(.constdata) for .constdata
    _printf_hex_int_ptr.o(.text) refers to _printf_intcommon.o(.text) for _printf_int_common
    _printf_hex_int_ptr.o(.text) refers (Weak) to _printf_truncate.o(.text) for _printf_truncate_unsigned
    _printf_hex_int_ptr.o(.text) refers to _printf_hex_int_ptr.o(.constdata) for .constdata
    _printf_hex_ll_ptr.o(.text) refers to _printf_intcommon.o(.text) for _printf_int_common
    _printf_hex_ll_ptr.o(.text) refers to _printf_hex_ll_ptr.o(.constdata) for .constdata
    _printf_hex_int_ll_ptr.o(.text) refers to _printf_intcommon.o(.text) for _printf_int_common
    _printf_hex_int_ll_ptr.o(.text) refers (Weak) to _printf_truncate.o(.text) for _printf_truncate_unsigned
    _printf_hex_int_ll_ptr.o(.text) refers to _printf_hex_int_ll_ptr.o(.constdata) for .constdata
    __printf_flags.o(.text) refers to _printf_percent.o(.ARM.Collect$$_printf_percent$$00000000) for _printf_percent
    __printf_flags.o(.text) refers to __printf_flags.o(.constdata) for .constdata
    __printf_ss.o(.text) refers to _printf_percent.o(.ARM.Collect$$_printf_percent$$00000000) for _printf_percent
    __printf_flags_ss.o(.text) refers to _printf_percent.o(.ARM.Collect$$_printf_percent$$00000000) for _printf_percent
    __printf_flags_ss.o(.text) refers to __printf_flags_ss.o(.constdata) for .constdata
    __printf_wp.o(.text) refers to __printf_wp.o(i._is_digit) for _is_digit
    __printf_wp.o(.text) refers to _printf_percent.o(.ARM.Collect$$_printf_percent$$00000000) for _printf_percent
    __printf_flags_wp.o(.text) refers to __printf_wp.o(i._is_digit) for _is_digit
    __printf_flags_wp.o(.text) refers to _printf_percent.o(.ARM.Collect$$_printf_percent$$00000000) for _printf_percent
    __printf_flags_wp.o(.text) refers to __printf_flags_wp.o(.constdata) for .constdata
    __printf_ss_wp.o(.text) refers to __printf_wp.o(i._is_digit) for _is_digit
    __printf_ss_wp.o(.text) refers to _printf_percent.o(.ARM.Collect$$_printf_percent$$00000000) for _printf_percent
    __printf_flags_ss_wp.o(.text) refers to __printf_wp.o(i._is_digit) for _is_digit
    __printf_flags_ss_wp.o(.text) refers to _printf_percent.o(.ARM.Collect$$_printf_percent$$00000000) for _printf_percent
    __printf_flags_ss_wp.o(.text) refers to __printf_flags_ss_wp.o(.constdata) for .constdata
    _printf_s.o(.ARM.Collect$$_printf_percent$$00000014) refers (Weak) to _printf_char.o(.text) for _printf_string
    _printf_x.o(.ARM.Collect$$_printf_percent$$0000000C) refers (Weak) to _printf_hex_int_ll_ptr.o(.text) for _printf_int_hex
    _printf_d.o(.ARM.Collect$$_printf_percent$$00000009) refers (Weak) to _printf_dec.o(.text) for _printf_int_dec
    _printf_percent.o(.ARM.Collect$$_printf_percent$$00000000) refers (Special) to _printf_percent_end.o(.ARM.Collect$$_printf_percent$$00000017) for _printf_percent_end
    rt_memcpy.o(.text) refers to rt_memcpy.o(.emb_text) for __aeabi_memcpy4
    aeabi_memset.o(.text) refers to rt_memclr.o(.text) for _memset
    __main.o(!!!main) refers to rtentry.o(.ARM.Collect$$rtentry$$00000000) for __rt_entry
    ddiv.o(.text) refers (Special) to usenofp.o(x$fpl$usenofp) for __I$use$fp
    ddiv.o(.text) refers to ddiv.o(.constdata) for .constdata
    ddiv.o(.constdata) refers (Special) to usenofp.o(x$fpl$usenofp) for __I$use$fp
    dfixui.o(.text) refers (Special) to usenofp.o(x$fpl$usenofp) for __I$use$fp
    dflti.o(.text) refers (Special) to usenofp.o(x$fpl$usenofp) for __I$use$fp
    dmul.o(.text) refers (Special) to usenofp.o(x$fpl$usenofp) for __I$use$fp
    rtentry.o(.ARM.Collect$$rtentry$$00000000) refers (Special) to rtentry2.o(.ARM.Collect$$rtentry$$0000000A) for __rt_entry_li
    rtentry.o(.ARM.Collect$$rtentry$$00000000) refers (Special) to rtentry2.o(.ARM.Collect$$rtentry$$0000000D) for __rt_entry_main
    rtentry.o(.ARM.Collect$$rtentry$$00000000) refers (Special) to rtentry2.o(.ARM.Collect$$rtentry$$0000000C) for __rt_entry_postli_1
    rtentry.o(.ARM.Collect$$rtentry$$00000000) refers (Special) to rtentry2.o(.ARM.Collect$$rtentry$$00000009) for __rt_entry_postsh_1
    rtentry.o(.ARM.Collect$$rtentry$$00000000) refers (Special) to rtentry2.o(.ARM.Collect$$rtentry$$00000002) for __rt_entry_presh_1
    rtentry.o(.ARM.Collect$$rtentry$$00000000) refers (Special) to rtentry4.o(.ARM.Collect$$rtentry$$00000004) for __rt_entry_sh
    aeabi_idiv0_sigfpe.o(.text) refers to rt_div0.o(.text) for __rt_div0
    aeabi_ldiv0_sigfpe.o(.text) refers to rt_div0.o(.text) for __rt_div0
    _printf_intcommon.o(.text) refers (Weak) to _printf_pad.o(.text) for _printf_pre_padding
    _printf_intcommon.o(.text) refers (Weak) to _printf_pad.o(.text) for _printf_pre_padding
    _printf_intcommon.o(.text) refers (Weak) to _printf_pad.o(.text) for _printf_post_padding
    _printf_char_common.o(.text) refers to __printf_flags_ss_wp.o(.text) for __printf
    _printf_char.o(.text) refers (Weak) to _printf_str.o(.text) for _printf_str
    _printf_char_file.o(.text) refers to _printf_char_common.o(.text) for _printf_char_common
    _printf_char_file.o(.text) refers to retarget.o(.text) for ferror
    _printf_wctomb.o(.text) refers (Special) to _printf_wchar.o(.text) for _printf_lcs_common
    _printf_wctomb.o(.text) refers to _wcrtomb.o(.text) for _wcrtomb
    _printf_wctomb.o(.text) refers (Weak) to _printf_pad.o(.text) for _printf_pre_padding
    _printf_wctomb.o(.text) refers (Weak) to _printf_pad.o(.text) for _printf_post_padding
    _printf_wctomb.o(.text) refers to _printf_wctomb.o(.constdata) for .constdata
    _printf_wctomb.o(.constdata) refers (Special) to _printf_wchar.o(.text) for _printf_lcs_common
    _printf_longlong_dec.o(.text) refers to lludiv10.o(.text) for _ll_udiv10
    _printf_longlong_dec.o(.text) refers to _printf_intcommon.o(.text) for _printf_int_common
    _printf_oct_ll.o(.text) refers to _printf_intcommon.o(.text) for _printf_int_common
    _printf_oct_int.o(.text) refers (Weak) to _printf_truncate.o(.text) for _printf_truncate_unsigned
    _printf_oct_int.o(.text) refers to _printf_intcommon.o(.text) for _printf_int_common
    _printf_oct_int_ll.o(.text) refers to _printf_intcommon.o(.text) for _printf_int_common
    _printf_oct_int_ll.o(.text) refers (Weak) to _printf_truncate.o(.text) for _printf_truncate_unsigned
    _printf_c.o(.ARM.Collect$$_printf_percent$$00000013) refers (Weak) to _printf_char.o(.text) for _printf_char
    _printf_n.o(.ARM.Collect$$_printf_percent$$00000001) refers (Weak) to _printf_charcount.o(.text) for _printf_charcount
    _printf_p.o(.ARM.Collect$$_printf_percent$$00000002) refers (Weak) to _printf_hex_int_ll_ptr.o(.text) for _printf_hex_ptr
    _printf_o.o(.ARM.Collect$$_printf_percent$$0000000B) refers (Weak) to _printf_oct_int_ll.o(.text) for _printf_int_oct
    _printf_i.o(.ARM.Collect$$_printf_percent$$00000008) refers (Weak) to _printf_dec.o(.text) for _printf_int_dec
    _printf_u.o(.ARM.Collect$$_printf_percent$$0000000A) refers (Weak) to _printf_dec.o(.text) for _printf_int_dec
    _printf_f.o(.ARM.Collect$$_printf_percent$$00000003) refers (Weak) to printf1.o(x$fpl$printf1) for _printf_fp_dec
    _printf_e.o(.ARM.Collect$$_printf_percent$$00000004) refers (Weak) to printf1.o(x$fpl$printf1) for _printf_fp_dec
    _printf_g.o(.ARM.Collect$$_printf_percent$$00000005) refers (Weak) to printf1.o(x$fpl$printf1) for _printf_fp_dec
    _printf_lli.o(.ARM.Collect$$_printf_percent$$0000000D) refers (Special) to _printf_ll.o(.ARM.Collect$$_printf_percent$$00000007) for _printf_ll
    _printf_lli.o(.ARM.Collect$$_printf_percent$$0000000D) refers (Weak) to _printf_longlong_dec.o(.text) for _printf_longlong_dec
    _printf_lld.o(.ARM.Collect$$_printf_percent$$0000000E) refers (Special) to _printf_ll.o(.ARM.Collect$$_printf_percent$$00000007) for _printf_ll
    _printf_lld.o(.ARM.Collect$$_printf_percent$$0000000E) refers (Weak) to _printf_longlong_dec.o(.text) for _printf_longlong_dec
    _printf_llu.o(.ARM.Collect$$_printf_percent$$0000000F) refers (Special) to _printf_ll.o(.ARM.Collect$$_printf_percent$$00000007) for _printf_ll
    _printf_llu.o(.ARM.Collect$$_printf_percent$$0000000F) refers (Weak) to _printf_longlong_dec.o(.text) for _printf_longlong_dec
    _printf_lc.o(.ARM.Collect$$_printf_percent$$00000015) refers (Special) to _printf_l.o(.ARM.Collect$$_printf_percent$$00000012) for _printf_l
    _printf_lc.o(.ARM.Collect$$_printf_percent$$00000015) refers (Weak) to _printf_wchar.o(.text) for _printf_wchar
    _printf_ls.o(.ARM.Collect$$_printf_percent$$00000016) refers (Special) to _printf_l.o(.ARM.Collect$$_printf_percent$$00000012) for _printf_l
    _printf_ls.o(.ARM.Collect$$_printf_percent$$00000016) refers (Weak) to _printf_wchar.o(.text) for _printf_wstring
    _printf_llo.o(.ARM.Collect$$_printf_percent$$00000010) refers (Special) to _printf_ll.o(.ARM.Collect$$_printf_percent$$00000007) for _printf_ll
    _printf_llo.o(.ARM.Collect$$_printf_percent$$00000010) refers (Weak) to _printf_oct_int_ll.o(.text) for _printf_ll_oct
    _printf_llx.o(.ARM.Collect$$_printf_percent$$00000011) refers (Special) to _printf_ll.o(.ARM.Collect$$_printf_percent$$00000007) for _printf_ll
    _printf_llx.o(.ARM.Collect$$_printf_percent$$00000011) refers (Weak) to _printf_hex_int_ll_ptr.o(.text) for _printf_ll_hex
    printf1.o(x$fpl$printf1) refers to _printf_fp_dec.o(.text) for _printf_fp_dec_real
    rtentry2.o(.ARM.Collect$$rtentry$$00000008) refers to boardinit2.o(.text) for _platform_post_stackheap_init
    rtentry2.o(.ARM.Collect$$rtentry$$0000000A) refers to libinit.o(.ARM.Collect$$libinit$$00000000) for __rt_lib_init
    rtentry2.o(.ARM.Collect$$rtentry$$0000000B) refers to boardinit3.o(.text) for _platform_post_lib_init
    rtentry2.o(.ARM.Collect$$rtentry$$0000000D) refers to main.o(.text) for main
    rtentry2.o(.ARM.Collect$$rtentry$$0000000D) refers to exit.o(.text) for exit
    rtentry2.o(.ARM.exidx) refers to rtentry2.o(.ARM.Collect$$rtentry$$00000001) for .ARM.Collect$$rtentry$$00000001
    rtentry2.o(.ARM.exidx) refers to rtentry2.o(.ARM.Collect$$rtentry$$00000008) for .ARM.Collect$$rtentry$$00000008
    rtentry2.o(.ARM.exidx) refers to rtentry2.o(.ARM.Collect$$rtentry$$0000000A) for .ARM.Collect$$rtentry$$0000000A
    rtentry2.o(.ARM.exidx) refers to rtentry2.o(.ARM.Collect$$rtentry$$0000000B) for .ARM.Collect$$rtentry$$0000000B
    rtentry2.o(.ARM.exidx) refers to rtentry2.o(.ARM.Collect$$rtentry$$0000000D) for .ARM.Collect$$rtentry$$0000000D
    rtentry4.o(.ARM.Collect$$rtentry$$00000004) refers to sys_stackheap_outer.o(.text) for __user_setup_stackheap
    rtentry4.o(.ARM.exidx) refers to rtentry4.o(.ARM.Collect$$rtentry$$00000004) for .ARM.Collect$$rtentry$$00000004
    rt_div0.o(.text) refers to defsig_fpe_outer.o(.text) for __rt_SIGFPE
    _printf_fp_dec.o(.text) refers (Special) to usenofp.o(x$fpl$usenofp) for __I$use$fp
    _printf_fp_dec.o(.text) refers (Special) to lc_numeric_c.o(locale$$code) for _get_lc_numeric
    _printf_fp_dec.o(.text) refers to bigflt0.o(.text) for _btod_etento
    _printf_fp_dec.o(.text) refers to btod.o(.text) for _btod_d2e
    _printf_fp_dec.o(.text) refers to lludiv10.o(.text) for _ll_udiv10
    _printf_fp_dec.o(.text) refers to fpclassify.o(i.__ARM_fpclassify) for __ARM_fpclassify
    _printf_fp_dec.o(.text) refers to _printf_fp_infnan.o(.text) for _printf_fp_infnan
    _printf_fp_dec.o(.text) refers to rtudiv10.o(.text) for __rt_udiv10
    _printf_fp_dec.o(.text) refers (Weak) to _printf_pad.o(.text) for _printf_pre_padding
    _printf_fp_dec.o(.text) refers (Weak) to _printf_pad.o(.text) for _printf_pre_padding
    _printf_fp_dec.o(.text) refers to rt_locale_intlibspace.o(.text) for __rt_locale
    _printf_fp_dec.o(.text) refers (Weak) to _printf_pad.o(.text) for _printf_post_padding
    _printf_wchar.o(.text) refers (Weak) to _printf_wctomb.o(.text) for _printf_wctomb
    _wcrtomb.o(.text) refers to rt_ctype_table.o(.text) for __rt_ctype_table
    sys_stackheap_outer.o(.text) refers to libspace.o(.text) for __user_perproc_libspace
    sys_stackheap_outer.o(.text) refers to startup_sy03.o(.text) for __user_initial_stackheap
    sys_stackheap_outer.o(__vectab_stack_and_reset_area) refers to tempstk.o(.text) for __temporary_stack_top
    sys_stackheap_outer.o(__vectab_stack_and_reset_area) refers to __main.o(!!!main) for __main
    rt_ctype_table.o(.text) refers to rt_locale_intlibspace.o(.text) for __rt_locale
    rt_ctype_table.o(.text) refers to lc_ctype_c.o(locale$$code) for _get_lc_ctype
    rt_locale.o(.text) refers to rt_locale.o(.bss) for __rt_locale_data
    rt_locale_intlibspace.o(.text) refers to libspace.o(.bss) for __libspace_start
    _printf_fp_infnan.o(.text) refers (Weak) to _printf_pad.o(.text) for _printf_pre_padding
    _printf_fp_infnan.o(.text) refers (Weak) to _printf_pad.o(.text) for _printf_post_padding
    bigflt0.o(.text) refers (Special) to usenofp.o(x$fpl$usenofp) for __I$use$fp
    bigflt0.o(.text) refers to aeabi_sdiv.o(.text) for __aeabi_idivmod
    bigflt0.o(.text) refers to btod.o(.text) for _btod_emul
    bigflt0.o(.text) refers to bigflt0.o(.constdata) for .constdata
    bigflt0.o(.constdata) refers (Special) to usenofp.o(x$fpl$usenofp) for __I$use$fp
    btod.o(.text) refers to sci.o(i.__ARM_common_ll_muluu) for __ARM_common_ll_muluu
    lc_numeric_c.o(locale$$data) refers (Special) to libinit2.o(.ARM.Collect$$libinit$$00000012) for __rt_lib_init_lc_numeric_2
    lc_numeric_c.o(locale$$code) refers (Special) to libinit2.o(.ARM.Collect$$libinit$$00000012) for __rt_lib_init_lc_numeric_2
    lc_numeric_c.o(locale$$code) refers to strcmp.o(.text) for strcmp
    lc_numeric_c.o(locale$$code) refers to lc_numeric_c.o(locale$$data) for __lcnum_c_name
    exit.o(.text) refers to rtexit.o(.ARM.Collect$$rtexit$$00000000) for __rt_exit
    defsig_fpe_outer.o(.text) refers to defsig_fpe_inner.o(.text) for __rt_SIGFPE_inner
    defsig_fpe_outer.o(.text) refers to defsig_exit.o(.text) for __sig_exit
    defsig_fpe_formal.o(.text) refers to rt_raise.o(.text) for __rt_raise
    libinit.o(.ARM.Collect$$libinit$$00000000) refers (Special) to libinit2.o(.ARM.Collect$$libinit$$0000002A) for __rt_lib_init_alloca_1
    libinit.o(.ARM.Collect$$libinit$$00000000) refers (Special) to libinit2.o(.ARM.Collect$$libinit$$00000028) for __rt_lib_init_argv_1
    libinit.o(.ARM.Collect$$libinit$$00000000) refers (Special) to libinit2.o(.ARM.Collect$$libinit$$00000017) for __rt_lib_init_atexit_1
    libinit.o(.ARM.Collect$$libinit$$00000000) refers (Special) to libinit2.o(.ARM.Collect$$libinit$$0000001D) for __rt_lib_init_clock_1
    libinit.o(.ARM.Collect$$libinit$$00000000) refers (Special) to libinit2.o(.ARM.Collect$$libinit$$0000002E) for __rt_lib_init_cpp_1
    libinit.o(.ARM.Collect$$libinit$$00000000) refers (Special) to libinit2.o(.ARM.Collect$$libinit$$0000002C) for __rt_lib_init_exceptions_1
    libinit.o(.ARM.Collect$$libinit$$00000000) refers (Special) to libinit2.o(.ARM.Collect$$libinit$$0000001B) for __rt_lib_init_fp_trap_1
    libinit.o(.ARM.Collect$$libinit$$00000000) refers (Special) to libinit2.o(.ARM.Collect$$libinit$$0000001F) for __rt_lib_init_getenv_1
    libinit.o(.ARM.Collect$$libinit$$00000000) refers (Special) to libinit2.o(.ARM.Collect$$libinit$$00000006) for __rt_lib_init_heap_1
    libinit.o(.ARM.Collect$$libinit$$00000000) refers (Special) to libinit2.o(.ARM.Collect$$libinit$$0000000D) for __rt_lib_init_lc_collate_1
    libinit.o(.ARM.Collect$$libinit$$00000000) refers (Special) to libinit2.o(.ARM.Collect$$libinit$$0000000F) for __rt_lib_init_lc_ctype_1
    libinit.o(.ARM.Collect$$libinit$$00000000) refers (Special) to libinit2.o(.ARM.Collect$$libinit$$00000011) for __rt_lib_init_lc_monetary_1
    libinit.o(.ARM.Collect$$libinit$$00000000) refers (Special) to libinit2.o(.ARM.Collect$$libinit$$00000013) for __rt_lib_init_lc_numeric_1
    libinit.o(.ARM.Collect$$libinit$$00000000) refers (Special) to libinit2.o(.ARM.Collect$$libinit$$00000015) for __rt_lib_init_lc_time_1
    libinit.o(.ARM.Collect$$libinit$$00000000) refers (Special) to libinit2.o(.ARM.Collect$$libinit$$0000000A) for __rt_lib_init_rand_1
    libinit.o(.ARM.Collect$$libinit$$00000000) refers (Special) to libinit2.o(.ARM.Collect$$libinit$$0000002F) for __rt_lib_init_return
    libinit.o(.ARM.Collect$$libinit$$00000000) refers (Special) to libinit2.o(.ARM.Collect$$libinit$$00000019) for __rt_lib_init_signal_1
    libinit.o(.ARM.Collect$$libinit$$00000000) refers (Special) to libinit2.o(.ARM.Collect$$libinit$$00000021) for __rt_lib_init_stdio_1
    libinit.o(.ARM.Collect$$libinit$$00000000) refers (Special) to libinit2.o(.ARM.Collect$$libinit$$00000008) for __rt_lib_init_user_alloc_1
    ieee_status.o(.text) refers (Special) to usenofp.o(x$fpl$usenofp) for __I$use$fp
    fpclassify.o(i.__ARM_fpclassify) refers (Special) to usenofp.o(x$fpl$usenofp) for __I$use$fp
    libspace.o(.text) refers to libspace.o(.bss) for __libspace_start
    rtexit.o(.ARM.Collect$$rtexit$$00000000) refers (Special) to rtexit2.o(.ARM.Collect$$rtexit$$00000004) for __rt_exit_exit
    rtexit.o(.ARM.Collect$$rtexit$$00000000) refers (Special) to rtexit2.o(.ARM.Collect$$rtexit$$00000003) for __rt_exit_ls
    rtexit.o(.ARM.Collect$$rtexit$$00000000) refers (Special) to rtexit2.o(.ARM.Collect$$rtexit$$00000002) for __rt_exit_prels_1
    rtexit.o(.ARM.exidx) refers (Special) to rtexit2.o(.ARM.Collect$$rtexit$$00000004) for __rt_exit_exit
    rtexit.o(.ARM.exidx) refers (Special) to rtexit2.o(.ARM.Collect$$rtexit$$00000003) for __rt_exit_ls
    rtexit.o(.ARM.exidx) refers (Special) to rtexit2.o(.ARM.Collect$$rtexit$$00000002) for __rt_exit_prels_1
    rtexit.o(.ARM.exidx) refers to rtexit.o(.ARM.Collect$$rtexit$$00000000) for .ARM.Collect$$rtexit$$00000000
    rt_raise.o(.text) refers to __raise.o(.text) for __raise
    rt_raise.o(.text) refers to retarget.o(.text) for _sys_exit
    lc_ctype_c.o(locale$$data) refers (Special) to libinit2.o(.ARM.Collect$$libinit$$0000000E) for __rt_lib_init_lc_ctype_2
    lc_ctype_c.o(locale$$code) refers (Special) to libinit2.o(.ARM.Collect$$libinit$$0000000E) for __rt_lib_init_lc_ctype_2
    lc_ctype_c.o(locale$$code) refers to strcmp.o(.text) for strcmp
    lc_ctype_c.o(locale$$code) refers to lc_ctype_c.o(locale$$data) for __lcctype_c_name
    defsig_exit.o(.text) refers to retarget.o(.text) for _sys_exit
    defsig_fpe_inner.o(.text) refers to defsig_general.o(.text) for __default_signal_display
    libinit2.o(.ARM.Collect$$libinit$$0000000B) refers (Weak) to rt_locale_intlibspace.o(.text) for __rt_locale
    libinit2.o(.ARM.Collect$$libinit$$0000000C) refers to libinit2.o(.ARM.Collect$$libinit$$0000000B) for .ARM.Collect$$libinit$$0000000B
    libinit2.o(.ARM.Collect$$libinit$$0000000E) refers to libinit2.o(.ARM.Collect$$libinit$$0000000B) for .ARM.Collect$$libinit$$0000000B
    libinit2.o(.ARM.Collect$$libinit$$0000000E) refers (Weak) to lc_ctype_c.o(locale$$code) for _get_lc_ctype
    libinit2.o(.ARM.Collect$$libinit$$00000010) refers to libinit2.o(.ARM.Collect$$libinit$$0000000B) for .ARM.Collect$$libinit$$0000000B
    libinit2.o(.ARM.Collect$$libinit$$00000012) refers to libinit2.o(.ARM.Collect$$libinit$$0000000B) for .ARM.Collect$$libinit$$0000000B
    libinit2.o(.ARM.Collect$$libinit$$00000012) refers (Weak) to lc_numeric_c.o(locale$$code) for _get_lc_numeric
    libinit2.o(.ARM.Collect$$libinit$$00000014) refers to libinit2.o(.ARM.Collect$$libinit$$0000000B) for .ARM.Collect$$libinit$$0000000B
    libinit2.o(.ARM.Collect$$libinit$$00000022) refers to argv_veneer.o(.text) for __ARM_argv_veneer
    libinit2.o(.ARM.Collect$$libinit$$00000023) refers to argv_veneer.o(.text) for __ARM_argv_veneer
    rtexit2.o(.ARM.Collect$$rtexit$$00000003) refers to libshutdown.o(.ARM.Collect$$libshutdown$$00000000) for __rt_lib_shutdown
    rtexit2.o(.ARM.Collect$$rtexit$$00000004) refers to retarget.o(.text) for _sys_exit
    rtexit2.o(.ARM.exidx) refers to rtexit2.o(.ARM.Collect$$rtexit$$00000001) for .ARM.Collect$$rtexit$$00000001
    rtexit2.o(.ARM.exidx) refers to rtexit2.o(.ARM.Collect$$rtexit$$00000003) for .ARM.Collect$$rtexit$$00000003
    rtexit2.o(.ARM.exidx) refers to rtexit2.o(.ARM.Collect$$rtexit$$00000004) for .ARM.Collect$$rtexit$$00000004
    __raise.o(.text) refers to defsig.o(CL$$defsig) for __default_signal_handler
    defsig_general.o(.text) refers to retarget.o(.text) for _ttywrch
    defsig.o(CL$$defsig) refers to defsig_fpe_inner.o(.text) for __rt_SIGFPE_inner
    defsig.o(CL$$defsig) refers to defsig_rtmem_inner.o(.text) for __rt_SIGRTMEM_inner
    _get_argv_nomalloc.o(.text) refers (Special) to hrguard.o(.text) for __heap_region$guard
    _get_argv_nomalloc.o(.text) refers to defsig_rtmem_outer.o(.text) for __rt_SIGRTMEM
    _get_argv_nomalloc.o(.text) refers to sys_command.o(.text) for _sys_command_string
    libshutdown.o(.ARM.Collect$$libshutdown$$00000000) refers (Special) to libshutdown2.o(.ARM.Collect$$libshutdown$$00000006) for __rt_lib_shutdown_fp_trap_1
    libshutdown.o(.ARM.Collect$$libshutdown$$00000000) refers (Special) to libshutdown2.o(.ARM.Collect$$libshutdown$$0000000E) for __rt_lib_shutdown_heap_1
    libshutdown.o(.ARM.Collect$$libshutdown$$00000000) refers (Special) to libshutdown2.o(.ARM.Collect$$libshutdown$$0000000F) for __rt_lib_shutdown_return
    libshutdown.o(.ARM.Collect$$libshutdown$$00000000) refers (Special) to libshutdown2.o(.ARM.Collect$$libshutdown$$00000009) for __rt_lib_shutdown_signal_1
    libshutdown.o(.ARM.Collect$$libshutdown$$00000000) refers (Special) to libshutdown2.o(.ARM.Collect$$libshutdown$$00000003) for __rt_lib_shutdown_stdio_1
    libshutdown.o(.ARM.Collect$$libshutdown$$00000000) refers (Special) to libshutdown2.o(.ARM.Collect$$libshutdown$$0000000B) for __rt_lib_shutdown_user_alloc_1
    sys_command.o(.text) refers (Special) to use_no_semi.o(.text) for __I$use$semihosting
    sys_command.o(.text) refers (Special) to indicate_semi.o(.text) for __semihosting_library_function
    defsig_abrt_inner.o(.text) refers to defsig_general.o(.text) for __default_signal_display
    defsig_rtred_inner.o(.text) refers to defsig_general.o(.text) for __default_signal_display
    defsig_rtmem_inner.o(.text) refers to defsig_general.o(.text) for __default_signal_display
    defsig_rtmem_outer.o(.text) refers to defsig_rtmem_inner.o(.text) for __rt_SIGRTMEM_inner
    defsig_rtmem_outer.o(.text) refers to defsig_exit.o(.text) for __sig_exit
    defsig_rtmem_formal.o(.text) refers to rt_raise.o(.text) for __rt_raise
    defsig_stak_inner.o(.text) refers to defsig_general.o(.text) for __default_signal_display
    defsig_pvfn_inner.o(.text) refers to defsig_general.o(.text) for __default_signal_display
    defsig_cppl_inner.o(.text) refers to defsig_general.o(.text) for __default_signal_display
    defsig_segv_inner.o(.text) refers to defsig_general.o(.text) for __default_signal_display
    defsig_other.o(.text) refers to defsig_general.o(.text) for __default_signal_display
    efc.o(i.EFC_WrProtect) refers to sy03_regs.o(.ARM.__AT_0x40054000) for EfcRegs
    sqi.o(i.SQI_WrProtect) refers to sy03_regs.o(.ARM.__AT_0x40058000) for SqiRegs
    spi.o(i.SCM_DisableModClk) refers to sy03_regs.o(.ARM.__AT_0x40000000) for ScmRegs
    spi.o(i.SCM_EnableModClk) refers to sy03_regs.o(.ARM.__AT_0x40000000) for ScmRegs
    spi.o(i.SCM_KeepModRst) refers to sy03_regs.o(.ARM.__AT_0x40000000) for ScmRegs
    spi.o(i.SCM_ReleaseModRst) refers to sy03_regs.o(.ARM.__AT_0x40000000) for ScmRegs


==============================================================================

Removing Unused input sections from the image.

    Removing core_cm0.o(.emb_text), (32 bytes).
    Removing sci.o(.text), (5600 bytes).
    Removing sci.o(.bss), (33 bytes).
    Removing sci.o(.constdata), (48 bytes).
    Removing sci.o(.data), (12 bytes).
    Removing swpm.o(.text), (580 bytes).
    Removing swpm.o(.bss), (10 bytes).
    Removing swpm.o(.data), (1 bytes).
    Removing gpio.o(.text), (748 bytes).
    Removing spi.o(.text), (904 bytes).
    Removing i2c.o(.text), (772 bytes).
    Removing acmp.o(.text), (260 bytes).
    Removing bvd.o(.text), (172 bytes).
    Removing tmr.o(.text), (516 bytes).
    Removing rtc.o(.text), (720 bytes).
    Removing rtc.o(.constdata), (12 bytes).
    Removing crc.o(.text), (132 bytes).
    Removing iso7816.o(.text), (1084 bytes).
    Removing testssf33.o(.text), (520 bytes).
    Removing testssf33.o(.constdata), (32 bytes).
    Removing testaes.o(.text), (1824 bytes).
    Removing testaes.o(.constdata), (52 bytes).
    Removing testalg.o(.text), (136 bytes).
    Removing testdes.o(.text), (1360 bytes).
    Removing testdes.o(.constdata), (109 bytes).
    Removing testecc.o(.text), (216 bytes).
    Removing testecc.o(.constdata), (20 bytes).
    Removing testhash.o(.text), (150 bytes).
    Removing testrandrom.o(.text), (52 bytes).
    Removing testrsa.o(.text), (1088 bytes).
    Removing testsm1.o(.text), (668 bytes).
    Removing testsm2.o(.text), (1800 bytes).
    Removing testsm2.o(.constdata), (129 bytes).
    Removing testsm3.o(.text), (50 bytes).
    Removing testsms4.o(.text), (232 bytes).
    Removing testsms4.o(.constdata), (32 bytes).
    Removing md5.o(.text), (2536 bytes).
    Removing md5.o(.constdata), (64 bytes).
    Removing des.o(.text), (2024 bytes).
    Removing des.o(.bss), (24 bytes).
    Removing sms4.o(.data), (4 bytes).
    Removing r_keygen.o(.data), (4 bytes).
    Removing syrsa.o(.data), (4 bytes).
    Removing ellipticcurve_zp.o(.text), (2556 bytes).
    Removing ellipticcurve_zp.o(.data), (4 bytes).
    Removing prime.o(.data), (4 bytes).
    Removing bigdigits.o(.data), (4 bytes).
    Removing elliptic-ffp.o(.data), (4 bytes).
    Removing r_random.o(.data), (4 bytes).
    Removing hardecc.o(.data), (4 bytes).

50 unused section(s) (total 27346 bytes) removed from the image.

==============================================================================

Image Symbol Table

    Local Symbols

    Symbol Name                              Value     Ov Type        Size  Object(Section)

    ../../angel/boardlib.s                   0x00000000   Number         0  boardinit3.o ABSOLUTE
    ../../angel/boardlib.s                   0x00000000   Number         0  boardinit2.o ABSOLUTE
    ../../angel/boardlib.s                   0x00000000   Number         0  boardinit1.o ABSOLUTE
    ../../angel/boardlib.s                   0x00000000   Number         0  boardshut.o ABSOLUTE
    ../../angel/handlers.s                   0x00000000   Number         0  __scatter_copy.o ABSOLUTE
    ../../angel/handlers.s                   0x00000000   Number         0  __scatter_zi.o ABSOLUTE
    ../../angel/kernel.s                     0x00000000   Number         0  rtentry4.o ABSOLUTE
    ../../angel/kernel.s                     0x00000000   Number         0  rtexit2.o ABSOLUTE
    ../../angel/kernel.s                     0x00000000   Number         0  rtentry2.o ABSOLUTE
    ../../angel/kernel.s                     0x00000000   Number         0  rtentry.o ABSOLUTE
    ../../angel/kernel.s                     0x00000000   Number         0  rtexit.o ABSOLUTE
    ../../angel/rt.s                         0x00000000   Number         0  rt_raise.o ABSOLUTE
    ../../angel/rt.s                         0x00000000   Number         0  rt_locale_intlibspace.o ABSOLUTE
    ../../angel/rt.s                         0x00000000   Number         0  rt_locale.o ABSOLUTE
    ../../angel/rt.s                         0x00000000   Number         0  rt_ctype_table.o ABSOLUTE
    ../../angel/rt.s                         0x00000000   Number         0  rt_div0.o ABSOLUTE
    ../../angel/rt.s                         0x00000000   Number         0  aeabi_ldiv0_sigfpe.o ABSOLUTE
    ../../angel/rt.s                         0x00000000   Number         0  aeabi_ldiv0.o ABSOLUTE
    ../../angel/rt.s                         0x00000000   Number         0  aeabi_idiv0_sigfpe.o ABSOLUTE
    ../../angel/rt.s                         0x00000000   Number         0  aeabi_idiv0.o ABSOLUTE
    ../../angel/scatterp.s                   0x00000000   Number         0  __scatter.o ABSOLUTE
    ../../angel/startup.s                    0x00000000   Number         0  __main.o ABSOLUTE
    ../../angel/sys.s                        0x00000000   Number         0  indicate_semi.o ABSOLUTE
    ../../angel/sys.s                        0x00000000   Number         0  libspace.o ABSOLUTE
    ../../angel/sys.s                        0x00000000   Number         0  tempstk.o ABSOLUTE
    ../../angel/sys.s                        0x00000000   Number         0  sys_stackheap_outer.o ABSOLUTE
    ../../angel/sys.s                        0x00000000   Number         0  use_no_semi.o ABSOLUTE
    ../../angel/sysapp.c                     0x00000000   Number         0  sys_command.o ABSOLUTE
    ../../armsys.c                           0x00000000   Number         0  argv_veneer.o ABSOLUTE
    ../../armsys.c                           0x00000000   Number         0  _get_argv_nomalloc.o ABSOLUTE
    ../../armsys.c                           0x00000000   Number         0  no_argv.o ABSOLUTE
    ../../bigflt.c                           0x00000000   Number         0  bigflt0.o ABSOLUTE
    ../../btod.c                             0x00000000   Number         0  btod.o ABSOLUTE
    ../../cfplib/ddiv.c                      0x00000000   Number         0  ddiv.o ABSOLUTE
    ../../cfplib/dmul.c                      0x00000000   Number         0  dmul.o ABSOLUTE
    ../../cfplib/ffix.c                      0x00000000   Number         0  dfixui.o ABSOLUTE
    ../../cfplib/fflt.c                      0x00000000   Number         0  dflti.o ABSOLUTE
    ../../cfplib/fpinit.c                    0x00000000   Number         0  fpinit.o ABSOLUTE
    ../../cfplib/ieee_status.c               0x00000000   Number         0  ieee_status.o ABSOLUTE
    ../../division.c                         0x00000000   Number         0  rtudiv10.o ABSOLUTE
    ../../division.c                         0x00000000   Number         0  lludiv10.o ABSOLUTE
    ../../division.c                         0x00000000   Number         0  lludiv.o ABSOLUTE
    ../../division.s                         0x00000000   Number         0  aeabi_sdiv_div0.o ABSOLUTE
    ../../division.s                         0x00000000   Number         0  aeabi_sdiv.o ABSOLUTE
    ../../fpclassify.c                       0x00000000   Number         0  fpclassify.o ABSOLUTE
    ../../heapalloc.c                        0x00000000   Number         0  hrguard.o ABSOLUTE
    ../../heapaux.c                          0x00000000   Number         0  heapauxi.o ABSOLUTE
    ../../libinit.s                          0x00000000   Number         0  libshutdown.o ABSOLUTE
    ../../libinit.s                          0x00000000   Number         0  libshutdown2.o ABSOLUTE
    ../../libinit.s                          0x00000000   Number         0  libinit.o ABSOLUTE
    ../../libinit.s                          0x00000000   Number         0  libinit2.o ABSOLUTE
    ../../locale.c                           0x00000000   Number         0  _wcrtomb.o ABSOLUTE
    ../../locale.s                           0x00000000   Number         0  lc_numeric_c.o ABSOLUTE
    ../../locale.s                           0x00000000   Number         0  lc_ctype_c.o ABSOLUTE
    ../../longlong.c                         0x00000000   Number         0  llushr.o ABSOLUTE
    ../../longlong.c                         0x00000000   Number         0  llshl.o ABSOLUTE
    ../../memcpset.c                         0x00000000   Number         0  rt_memcpy.o ABSOLUTE
    ../../memcpset.c                         0x00000000   Number         0  rt_memcpy.o ABSOLUTE
    ../../memcpset.c                         0x00000000   Number         0  aeabi_memset.o ABSOLUTE
    ../../memcpset.c                         0x00000000   Number         0  rt_memclr.o ABSOLUTE
    ../../misc.s                             0x00000000   Number         0  printf_stubs.o ABSOLUTE
    ../../printf.c                           0x00000000   Number         0  noretval__2printf.o ABSOLUTE
    ../../printf.c                           0x00000000   Number         0  __2printf.o ABSOLUTE
    ../../printf.c                           0x00000000   Number         0  c89vsnprintf.o ABSOLUTE
    ../../printf.c                           0x00000000   Number         0  _printf_fp_infnan.o ABSOLUTE
    ../../printf.c                           0x00000000   Number         0  _printf_oct_int_ll.o ABSOLUTE
    ../../printf.c                           0x00000000   Number         0  _printf_wchar.o ABSOLUTE
    ../../printf.c                           0x00000000   Number         0  _printf_oct_int.o ABSOLUTE
    ../../printf.c                           0x00000000   Number         0  _printf_oct_ll.o ABSOLUTE
    ../../printf.c                           0x00000000   Number         0  __printf_nopercent.o ABSOLUTE
    ../../printf.c                           0x00000000   Number         0  _printf_longlong_dec.o ABSOLUTE
    ../../printf.c                           0x00000000   Number         0  _printf_wctomb.o ABSOLUTE
    ../../printf.c                           0x00000000   Number         0  _printf_char_file.o ABSOLUTE
    ../../printf.c                           0x00000000   Number         0  _printf_char.o ABSOLUTE
    ../../printf.c                           0x00000000   Number         0  _snputc.o ABSOLUTE
    ../../printf.c                           0x00000000   Number         0  _sputc.o ABSOLUTE
    ../../printf.c                           0x00000000   Number         0  _printf_char_common.o ABSOLUTE
    ../../printf.c                           0x00000000   Number         0  _printf_charcount.o ABSOLUTE
    ../../printf.c                           0x00000000   Number         0  _printf_intcommon.o ABSOLUTE
    ../../printf.c                           0x00000000   Number         0  _printf_fp_dec.o ABSOLUTE
    ../../printf.c                           0x00000000   Number         0  _printf_hex_ll.o ABSOLUTE
    ../../printf.c                           0x00000000   Number         0  __printf_flags_ss_wp.o ABSOLUTE
    ../../printf.c                           0x00000000   Number         0  __printf_ss_wp.o ABSOLUTE
    ../../printf.c                           0x00000000   Number         0  __printf_flags_wp.o ABSOLUTE
    ../../printf.c                           0x00000000   Number         0  __printf_wp.o ABSOLUTE
    ../../printf.c                           0x00000000   Number         0  __printf_flags_ss.o ABSOLUTE
    ../../printf.c                           0x00000000   Number         0  __printf_ss.o ABSOLUTE
    ../../printf.c                           0x00000000   Number         0  __printf_flags.o ABSOLUTE
    ../../printf.c                           0x00000000   Number         0  _printf_hex_int_ll_ptr.o ABSOLUTE
    ../../printf.c                           0x00000000   Number         0  _printf_hex_ll_ptr.o ABSOLUTE
    ../../printf.c                           0x00000000   Number         0  _printf_hex_int_ptr.o ABSOLUTE
    ../../printf.c                           0x00000000   Number         0  _printf_hex_ptr.o ABSOLUTE
    ../../printf.c                           0x00000000   Number         0  _printf_hex_int_ll.o ABSOLUTE
    ../../printf.c                           0x00000000   Number         0  _printf_hex_int.o ABSOLUTE
    ../../printf.c                           0x00000000   Number         0  _printf_truncate.o ABSOLUTE
    ../../printf.c                           0x00000000   Number         0  _printf_dec.o ABSOLUTE
    ../../printf.c                           0x00000000   Number         0  _printf_str.o ABSOLUTE
    ../../printf.c                           0x00000000   Number         0  _printf_pad.o ABSOLUTE
    ../../printf.c                           0x00000000   Number         0  __printf.o ABSOLUTE
    ../../printf1.s                          0x00000000   Number         0  printf1.o ABSOLUTE
    ../../printf_percent.s                   0x00000000   Number         0  _printf_l.o ABSOLUTE
    ../../printf_percent.s                   0x00000000   Number         0  _printf_a.o ABSOLUTE
    ../../printf_percent.s                   0x00000000   Number         0  _printf_n.o ABSOLUTE
    ../../printf_percent.s                   0x00000000   Number         0  _printf_c.o ABSOLUTE
    ../../printf_percent.s                   0x00000000   Number         0  _printf_x.o ABSOLUTE
    ../../printf_percent.s                   0x00000000   Number         0  _printf_ll.o ABSOLUTE
    ../../printf_percent.s                   0x00000000   Number         0  _printf_d.o ABSOLUTE
    ../../printf_percent.s                   0x00000000   Number         0  _printf_o.o ABSOLUTE
    ../../printf_percent.s                   0x00000000   Number         0  _printf_lc.o ABSOLUTE
    ../../printf_percent.s                   0x00000000   Number         0  _printf_ls.o ABSOLUTE
    ../../printf_percent.s                   0x00000000   Number         0  _printf_llo.o ABSOLUTE
    ../../printf_percent.s                   0x00000000   Number         0  _printf_p.o ABSOLUTE
    ../../printf_percent.s                   0x00000000   Number         0  _printf_llx.o ABSOLUTE
    ../../printf_percent.s                   0x00000000   Number         0  _printf_percent_end.o ABSOLUTE
    ../../printf_percent.s                   0x00000000   Number         0  _printf_lld.o ABSOLUTE
    ../../printf_percent.s                   0x00000000   Number         0  _printf_percent.o ABSOLUTE
    ../../printf_percent.s                   0x00000000   Number         0  _printf_lli.o ABSOLUTE
    ../../printf_percent.s                   0x00000000   Number         0  _printf_llu.o ABSOLUTE
    ../../printf_percent.s                   0x00000000   Number         0  _printf_s.o ABSOLUTE
    ../../printf_percent.s                   0x00000000   Number         0  _printf_g.o ABSOLUTE
    ../../printf_percent.s                   0x00000000   Number         0  _printf_e.o ABSOLUTE
    ../../printf_percent.s                   0x00000000   Number         0  _printf_f.o ABSOLUTE
    ../../printf_percent.s                   0x00000000   Number         0  _printf_u.o ABSOLUTE
    ../../printf_percent.s                   0x00000000   Number         0  _printf_i.o ABSOLUTE
    ../../signal.c                           0x00000000   Number         0  defsig_rtmem_formal.o ABSOLUTE
    ../../signal.c                           0x00000000   Number         0  defsig_rtred_inner.o ABSOLUTE
    ../../signal.c                           0x00000000   Number         0  defsig_abrt_inner.o ABSOLUTE
    ../../signal.c                           0x00000000   Number         0  defsig_rtmem_inner.o ABSOLUTE
    ../../signal.c                           0x00000000   Number         0  defsig_general.o ABSOLUTE
    ../../signal.c                           0x00000000   Number         0  __raise.o ABSOLUTE
    ../../signal.c                           0x00000000   Number         0  defsig_fpe_inner.o ABSOLUTE
    ../../signal.c                           0x00000000   Number         0  defsig_exit.o ABSOLUTE
    ../../signal.c                           0x00000000   Number         0  defsig_fpe_outer.o ABSOLUTE
    ../../signal.c                           0x00000000   Number         0  defsig_rtmem_outer.o ABSOLUTE
    ../../signal.c                           0x00000000   Number         0  defsig_cppl_inner.o ABSOLUTE
    ../../signal.c                           0x00000000   Number         0  defsig_segv_inner.o ABSOLUTE
    ../../signal.c                           0x00000000   Number         0  defsig_other.o ABSOLUTE
    ../../signal.c                           0x00000000   Number         0  defsig_pvfn_inner.o ABSOLUTE
    ../../signal.c                           0x00000000   Number         0  defsig_fpe_formal.o ABSOLUTE
    ../../signal.c                           0x00000000   Number         0  defsig_stak_inner.o ABSOLUTE
    ../../signal.s                           0x00000000   Number         0  defsig.o ABSOLUTE
    ../../stdlib.c                           0x00000000   Number         0  exit.o ABSOLUTE
    ../../string.c                           0x00000000   Number         0  memcmp.o ABSOLUTE
    ../../string.c                           0x00000000   Number         0  strcpy.o ABSOLUTE
    ../../string.c                           0x00000000   Number         0  strcat.o ABSOLUTE
    ../../string.c                           0x00000000   Number         0  strcmp.o ABSOLUTE
    ../../string.c                           0x00000000   Number         0  strlen.o ABSOLUTE
    ../../unhosted.c                         0x00000000   Number         0  uread4.o ABSOLUTE
    ../../unhosted.c                         0x00000000   Number         0  uwrite4.o ABSOLUTE
    ../../usenofp.s                          0x00000000   Number         0  usenofp.o ABSOLUTE
    ..\..\HAL\RomFunc.c                      0x00000000   Number         0  romfunc.o ABSOLUTE
    ..\..\Source\ECDSA\HardEcc.c             0x00000000   Number         0  hardecc.o ABSOLUTE
    ..\..\Source\ECDSA\SM2.c                 0x00000000   Number         0  sm2.o ABSOLUTE
    ..\..\Source\ECDSA\bigdigits.c           0x00000000   Number         0  bigdigits.o ABSOLUTE
    ..\..\Source\ECDSA\elliptic-ffp.c        0x00000000   Number         0  elliptic-ffp.o ABSOLUTE
    ..\..\Source\ECDSA\ellipticCurve_Zp.c    0x00000000   Number         0  ellipticcurve_zp.o ABSOLUTE
    ..\..\Source\Hash\Md5.c                  0x00000000   Number         0  md5.o ABSOLUTE
    ..\..\Source\Hash\SM3.c                  0x00000000   Number         0  sm3.o ABSOLUTE
    ..\..\Source\Hash\sha-1.c                0x00000000   Number         0  sha-1.o ABSOLUTE
    ..\..\Source\Hash\sha-256.c              0x00000000   Number         0  sha-256.o ABSOLUTE
    ..\..\Source\RSA\nn.c                    0x00000000   Number         0  nn.o ABSOLUTE
    ..\..\Source\RSA\prime.c                 0x00000000   Number         0  prime.o ABSOLUTE
    ..\..\Source\RSA\r_keygen.c              0x00000000   Number         0  r_keygen.o ABSOLUTE
    ..\..\Source\RSA\r_random.c              0x00000000   Number         0  r_random.o ABSOLUTE
    ..\..\Source\RSA\syRSA.c                 0x00000000   Number         0  syrsa.o ABSOLUTE
    ..\..\Source\SEA\AES.c                   0x00000000   Number         0  aes.o ABSOLUTE
    ..\..\Source\SEA\AlgBase.c               0x00000000   Number         0  algbase.o ABSOLUTE
    ..\..\Source\SEA\Des.c                   0x00000000   Number         0  des.o ABSOLUTE
    ..\..\Source\SEA\SM1.c                   0x00000000   Number         0  sm1.o ABSOLUTE
    ..\..\Source\SEA\SMS4.c                  0x00000000   Number         0  sms4.o ABSOLUTE
    ..\..\Source\SEA\SSF33.c                 0x00000000   Number         0  ssf33.o ABSOLUTE
    ..\..\Source\SEA\SSF33Alg.c              0x00000000   Number         0  ssf33alg.o ABSOLUTE
    ..\CMSIS\Core\CM0\core_cm0.c             0x00000000   Number         0  core_cm0.o ABSOLUTE
    ..\FatFS\diskio.c                        0x00000000   Number         0  diskio.o ABSOLUTE
    ..\FatFS\ff.c                            0x00000000   Number         0  ff.o ABSOLUTE
    ..\HAL\Acmp.c                            0x00000000   Number         0  acmp.o ABSOLUTE
    ..\HAL\Bvd.c                             0x00000000   Number         0  bvd.o ABSOLUTE
    ..\HAL\Crc.c                             0x00000000   Number         0  crc.o ABSOLUTE
    ..\HAL\Efc.c                             0x00000000   Number         0  efc.o ABSOLUTE
    ..\HAL\Gpio.c                            0x00000000   Number         0  gpio.o ABSOLUTE
    ..\HAL\I2c.c                             0x00000000   Number         0  i2c.o ABSOLUTE
    ..\HAL\Iso7816.c                         0x00000000   Number         0  iso7816.o ABSOLUTE
    ..\HAL\Retarget.c                        0x00000000   Number         0  retarget.o ABSOLUTE
    ..\HAL\Rtc.c                             0x00000000   Number         0  rtc.o ABSOLUTE
    ..\HAL\SFlash.c                          0x00000000   Number         0  sflash.o ABSOLUTE
    ..\HAL\Sci.c                             0x00000000   Number         0  sci.o ABSOLUTE
    ..\HAL\Scm.c                             0x00000000   Number         0  scm.o ABSOLUTE
    ..\HAL\Sdi.c                             0x00000000   Number         0  sdi.o ABSOLUTE
    ..\HAL\Sdsi.c                            0x00000000   Number         0  sdsi.o ABSOLUTE
    ..\HAL\Serial.c                          0x00000000   Number         0  serial.o ABSOLUTE
    ..\HAL\Spi.c                             0x00000000   Number         0  spi.o ABSOLUTE
    ..\HAL\Sqi.c                             0x00000000   Number         0  sqi.o ABSOLUTE
    ..\HAL\Ssi.c                             0x00000000   Number         0  ssi.o ABSOLUTE
    ..\HAL\Swpm.c                            0x00000000   Number         0  swpm.o ABSOLUTE
    ..\HAL\Swps.c                            0x00000000   Number         0  swps.o ABSOLUTE
    ..\HAL\Tmr.c                             0x00000000   Number         0  tmr.o ABSOLUTE
    ..\HAL\Trng.c                            0x00000000   Number         0  trng.o ABSOLUTE
    ..\HAL\USB\USBProtocol.c                 0x00000000   Number         0  usbprotocol.o ABSOLUTE
    ..\HAL\USB\UsbBase.c                     0x00000000   Number         0  usbbase.o ABSOLUTE
    ..\HAL\USB\bulkitem.c                    0x00000000   Number         0  bulkitem.o ABSOLUTE
    ..\HAL\USB\bulkusb.c                     0x00000000   Number         0  bulkusb.o ABSOLUTE
    ..\HAL\USB\ctrlitem.c                    0x00000000   Number         0  ctrlitem.o ABSOLUTE
    ..\HAL\USB\ctrlusb.c                     0x00000000   Number         0  ctrlusb.o ABSOLUTE
    ..\HAL\Uart.c                            0x00000000   Number         0  uart.o ABSOLUTE
    ..\HAL\Vpwm.c                            0x00000000   Number         0  vpwm.o ABSOLUTE
    ..\HAL\XFlash.c                          0x00000000   Number         0  xflash.o ABSOLUTE
    ..\HDR\SY03_Regs.c                       0x00000000   Number         0  sy03_regs.o ABSOLUTE
    ..\Source\Command.c                      0x00000000   Number         0  command.o ABSOLUTE
    ..\Source\CommandEx.c                    0x00000000   Number         0  commandex.o ABSOLUTE
    ..\Source\FileSystem.c                   0x00000000   Number         0  filesystem.o ABSOLUTE
    ..\Source\SD_SystemApp.c                 0x00000000   Number         0  sd_systemapp.o ABSOLUTE
    ..\Source\SdMemAcc.c                     0x00000000   Number         0  sdmemacc.o ABSOLUTE
    ..\Source\TestAlg\TestAlg.c              0x00000000   Number         0  testalg.o ABSOLUTE
    ..\Source\TestAlg\TestDes.c              0x00000000   Number         0  testdes.o ABSOLUTE
    ..\Source\TestAlg\TestHash.c             0x00000000   Number         0  testhash.o ABSOLUTE
    ..\Source\TestAlg\TestRSA.c              0x00000000   Number         0  testrsa.o ABSOLUTE
    ..\Source\TestAlg\TestRandRom.c          0x00000000   Number         0  testrandrom.o ABSOLUTE
    ..\Source\TestAlg\TestSM1.c              0x00000000   Number         0  testsm1.o ABSOLUTE
    ..\Source\TestAlg\TestSM2.c              0x00000000   Number         0  testsm2.o ABSOLUTE
    ..\Source\TestAlg\TestSM3.c              0x00000000   Number         0  testsm3.o ABSOLUTE
    ..\Source\TestAlg\TestSMS4.c             0x00000000   Number         0  testsms4.o ABSOLUTE
    ..\Source\TestAlg\TestSSF33.c            0x00000000   Number         0  testssf33.o ABSOLUTE
    ..\Source\TestAlg\testAes.c              0x00000000   Number         0  testaes.o ABSOLUTE
    ..\Source\TestAlg\testEcc.c              0x00000000   Number         0  testecc.o ABSOLUTE
    ..\Source\log.c                          0x00000000   Number         0  log.o ABSOLUTE
    ..\Source\main.c                         0x00000000   Number         0  main.o ABSOLUTE
    ..\Startup\startup_SY03.s                0x00000000   Number         0  startup_sy03.o ABSOLUTE
    ..\Startup\system_SY03.c                 0x00000000   Number         0  system_sy03.o ABSOLUTE
    ..\\CMSIS\\Core\\CM0\\core_cm0.c         0x00000000   Number         0  core_cm0.o ABSOLUTE
    dc.s                                     0x00000000   Number         0  dc.o ABSOLUTE
    RESET                                    0x10000000   Section      256  startup_sy03.o(RESET)
    !!!main                                  0x10000100   Section        8  __main.o(!!!main)
    !!!scatter                               0x10000108   Section       60  __scatter.o(!!!scatter)
    !!handler_copy                           0x10000144   Section       26  __scatter_copy.o(!!handler_copy)
    !!handler_zi                             0x10000160   Section       28  __scatter_zi.o(!!handler_zi)
    .ARM.Collect$$_printf_percent$$00000000  0x1000017c   Section        2  _printf_percent.o(.ARM.Collect$$_printf_percent$$00000000)
    .ARM.Collect$$_printf_percent$$00000001  0x1000017e   Section       10  _printf_n.o(.ARM.Collect$$_printf_percent$$00000001)
    .ARM.Collect$$_printf_percent$$00000002  0x10000188   Section       10  _printf_p.o(.ARM.Collect$$_printf_percent$$00000002)
    .ARM.Collect$$_printf_percent$$00000003  0x10000192   Section       10  _printf_f.o(.ARM.Collect$$_printf_percent$$00000003)
    .ARM.Collect$$_printf_percent$$00000004  0x1000019c   Section       10  _printf_e.o(.ARM.Collect$$_printf_percent$$00000004)
    .ARM.Collect$$_printf_percent$$00000005  0x100001a6   Section       10  _printf_g.o(.ARM.Collect$$_printf_percent$$00000005)
    .ARM.Collect$$_printf_percent$$00000006  0x100001b0   Section       10  _printf_a.o(.ARM.Collect$$_printf_percent$$00000006)
    .ARM.Collect$$_printf_percent$$00000007  0x100001ba   Section       10  _printf_ll.o(.ARM.Collect$$_printf_percent$$00000007)
    .ARM.Collect$$_printf_percent$$00000008  0x100001c4   Section       10  _printf_i.o(.ARM.Collect$$_printf_percent$$00000008)
    .ARM.Collect$$_printf_percent$$00000009  0x100001ce   Section       10  _printf_d.o(.ARM.Collect$$_printf_percent$$00000009)
    .ARM.Collect$$_printf_percent$$0000000A  0x100001d8   Section       10  _printf_u.o(.ARM.Collect$$_printf_percent$$0000000A)
    .ARM.Collect$$_printf_percent$$0000000B  0x100001e2   Section       10  _printf_o.o(.ARM.Collect$$_printf_percent$$0000000B)
    .ARM.Collect$$_printf_percent$$0000000C  0x100001ec   Section       10  _printf_x.o(.ARM.Collect$$_printf_percent$$0000000C)
    .ARM.Collect$$_printf_percent$$0000000D  0x100001f6   Section       10  _printf_lli.o(.ARM.Collect$$_printf_percent$$0000000D)
    .ARM.Collect$$_printf_percent$$0000000E  0x10000200   Section       10  _printf_lld.o(.ARM.Collect$$_printf_percent$$0000000E)
    .ARM.Collect$$_printf_percent$$0000000F  0x1000020a   Section       10  _printf_llu.o(.ARM.Collect$$_printf_percent$$0000000F)
    .ARM.Collect$$_printf_percent$$00000010  0x10000214   Section       10  _printf_llo.o(.ARM.Collect$$_printf_percent$$00000010)
    .ARM.Collect$$_printf_percent$$00000011  0x1000021e   Section       10  _printf_llx.o(.ARM.Collect$$_printf_percent$$00000011)
    .ARM.Collect$$_printf_percent$$00000012  0x10000228   Section       10  _printf_l.o(.ARM.Collect$$_printf_percent$$00000012)
    .ARM.Collect$$_printf_percent$$00000013  0x10000232   Section       10  _printf_c.o(.ARM.Collect$$_printf_percent$$00000013)
    .ARM.Collect$$_printf_percent$$00000014  0x1000023c   Section       10  _printf_s.o(.ARM.Collect$$_printf_percent$$00000014)
    .ARM.Collect$$_printf_percent$$00000015  0x10000246   Section       10  _printf_lc.o(.ARM.Collect$$_printf_percent$$00000015)
    .ARM.Collect$$_printf_percent$$00000016  0x10000250   Section       10  _printf_ls.o(.ARM.Collect$$_printf_percent$$00000016)
    .ARM.Collect$$_printf_percent$$00000017  0x1000025a   Section        4  _printf_percent_end.o(.ARM.Collect$$_printf_percent$$00000017)
    .ARM.Collect$$libinit$$00000000          0x1000025e   Section        6  libinit.o(.ARM.Collect$$libinit$$00000000)
    .ARM.Collect$$libinit$$00000006          0x10000264   Section        0  libinit2.o(.ARM.Collect$$libinit$$00000006)
    .ARM.Collect$$libinit$$00000008          0x10000264   Section        0  libinit2.o(.ARM.Collect$$libinit$$00000008)
    .ARM.Collect$$libinit$$0000000A          0x10000264   Section        0  libinit2.o(.ARM.Collect$$libinit$$0000000A)
    .ARM.Collect$$libinit$$0000000B          0x10000264   Section        6  libinit2.o(.ARM.Collect$$libinit$$0000000B)
    .ARM.Collect$$libinit$$0000000D          0x1000026a   Section        0  libinit2.o(.ARM.Collect$$libinit$$0000000D)
    .ARM.Collect$$libinit$$0000000E          0x1000026a   Section       12  libinit2.o(.ARM.Collect$$libinit$$0000000E)
    .ARM.Collect$$libinit$$0000000F          0x10000276   Section        0  libinit2.o(.ARM.Collect$$libinit$$0000000F)
    .ARM.Collect$$libinit$$00000011          0x10000276   Section        0  libinit2.o(.ARM.Collect$$libinit$$00000011)
    .ARM.Collect$$libinit$$00000012          0x10000276   Section       10  libinit2.o(.ARM.Collect$$libinit$$00000012)
    .ARM.Collect$$libinit$$00000013          0x10000280   Section        0  libinit2.o(.ARM.Collect$$libinit$$00000013)
    .ARM.Collect$$libinit$$00000015          0x10000280   Section        0  libinit2.o(.ARM.Collect$$libinit$$00000015)
    .ARM.Collect$$libinit$$00000017          0x10000280   Section        0  libinit2.o(.ARM.Collect$$libinit$$00000017)
    .ARM.Collect$$libinit$$00000019          0x10000280   Section        0  libinit2.o(.ARM.Collect$$libinit$$00000019)
    .ARM.Collect$$libinit$$0000001B          0x10000280   Section        0  libinit2.o(.ARM.Collect$$libinit$$0000001B)
    .ARM.Collect$$libinit$$0000001D          0x10000280   Section        0  libinit2.o(.ARM.Collect$$libinit$$0000001D)
    .ARM.Collect$$libinit$$0000001F          0x10000280   Section        0  libinit2.o(.ARM.Collect$$libinit$$0000001F)
    .ARM.Collect$$libinit$$00000021          0x10000280   Section        0  libinit2.o(.ARM.Collect$$libinit$$00000021)
    .ARM.Collect$$libinit$$00000028          0x10000280   Section        0  libinit2.o(.ARM.Collect$$libinit$$00000028)
    .ARM.Collect$$libinit$$0000002A          0x10000280   Section        0  libinit2.o(.ARM.Collect$$libinit$$0000002A)
    .ARM.Collect$$libinit$$0000002C          0x10000280   Section        0  libinit2.o(.ARM.Collect$$libinit$$0000002C)
    .ARM.Collect$$libinit$$0000002E          0x10000280   Section        0  libinit2.o(.ARM.Collect$$libinit$$0000002E)
    .ARM.Collect$$libinit$$0000002F          0x10000280   Section        2  libinit2.o(.ARM.Collect$$libinit$$0000002F)
    .ARM.Collect$$libshutdown$$00000000      0x10000282   Section        2  libshutdown.o(.ARM.Collect$$libshutdown$$00000000)
    .ARM.Collect$$libshutdown$$00000003      0x10000284   Section        0  libshutdown2.o(.ARM.Collect$$libshutdown$$00000003)
    .ARM.Collect$$libshutdown$$00000006      0x10000284   Section        0  libshutdown2.o(.ARM.Collect$$libshutdown$$00000006)
    .ARM.Collect$$libshutdown$$00000009      0x10000284   Section        0  libshutdown2.o(.ARM.Collect$$libshutdown$$00000009)
    .ARM.Collect$$libshutdown$$0000000B      0x10000284   Section        0  libshutdown2.o(.ARM.Collect$$libshutdown$$0000000B)
    .ARM.Collect$$libshutdown$$0000000E      0x10000284   Section        0  libshutdown2.o(.ARM.Collect$$libshutdown$$0000000E)
    .ARM.Collect$$libshutdown$$0000000F      0x10000284   Section        2  libshutdown2.o(.ARM.Collect$$libshutdown$$0000000F)
    .ARM.Collect$$rtentry$$00000000          0x10000286   Section        0  rtentry.o(.ARM.Collect$$rtentry$$00000000)
    .ARM.Collect$$rtentry$$00000002          0x10000286   Section        0  rtentry2.o(.ARM.Collect$$rtentry$$00000002)
    .ARM.Collect$$rtentry$$00000004          0x10000286   Section        6  rtentry4.o(.ARM.Collect$$rtentry$$00000004)
    .ARM.Collect$$rtentry$$00000009          0x1000028c   Section        0  rtentry2.o(.ARM.Collect$$rtentry$$00000009)
    .ARM.Collect$$rtentry$$0000000A          0x1000028c   Section        4  rtentry2.o(.ARM.Collect$$rtentry$$0000000A)
    .ARM.Collect$$rtentry$$0000000C          0x10000290   Section        0  rtentry2.o(.ARM.Collect$$rtentry$$0000000C)
    .ARM.Collect$$rtentry$$0000000D          0x10000290   Section        8  rtentry2.o(.ARM.Collect$$rtentry$$0000000D)
    .ARM.Collect$$rtexit$$00000000           0x10000298   Section        2  rtexit.o(.ARM.Collect$$rtexit$$00000000)
    .ARM.Collect$$rtexit$$00000002           0x1000029a   Section        0  rtexit2.o(.ARM.Collect$$rtexit$$00000002)
    .ARM.Collect$$rtexit$$00000003           0x1000029a   Section        4  rtexit2.o(.ARM.Collect$$rtexit$$00000003)
    .ARM.Collect$$rtexit$$00000004           0x1000029e   Section        6  rtexit2.o(.ARM.Collect$$rtexit$$00000004)
    .emb_text                                0x100002a4   Section       56  rt_memcpy.o(.emb_text)
    .text                                    0x100002dc   Section       88  startup_sy03.o(.text)
    .text                                    0x10000334   Section        0  system_sy03.o(.text)
    .text                                    0x10000370   Section        0  efc.o(.text)
    FlashWriteBlock                          0x100004fd   Thumb Code   132  efc.o(.text)
    .text                                    0x10000868   Section        0  retarget.o(.text)
    .text                                    0x100008a4   Section        0  scm.o(.text)
    SCM_RegWrEn                              0x100008a5   Thumb Code    34  scm.o(.text)
    NVIC_SetPriority                         0x10000c27   Thumb Code   222  scm.o(.text)
    .text                                    0x10000d04   Section        0  serial.o(.text)
    .text                                    0x10000ddc   Section        0  sqi.o(.text)
    SQI_MpuWrEnable                          0x10000f93   Thumb Code    64  sqi.o(.text)
    .text                                    0x100013e0   Section        0  ssi.o(.text)
    NVIC_EnableIRQ                           0x1000175d   Thumb Code    20  ssi.o(.text)
    NVIC_DisableIRQ                          0x10001771   Thumb Code    20  ssi.o(.text)
    .text                                    0x100017a4   Section        0  swps.o(.text)
    NVIC_EnableIRQ                           0x10001bc3   Thumb Code    20  swps.o(.text)
    .text                                    0x10001be0   Section        0  uart.o(.text)
    NVIC_EnableIRQ                           0x1000222b   Thumb Code    20  uart.o(.text)
    NVIC_DisableIRQ                          0x1000223f   Thumb Code    20  uart.o(.text)
    .text                                    0x10002260   Section        0  vpwm.o(.text)
    .text                                    0x10002550   Section        0  trng.o(.text)
    .text                                    0x10002678   Section        0  sflash.o(.text)
    SF_IsBufAllOne                           0x10002679   Thumb Code    34  sflash.o(.text)
    SF_BackupPage                            0x1000269b   Thumb Code    98  sflash.o(.text)
    SF_RecoverPage                           0x100026fd   Thumb Code    88  sflash.o(.text)
    SF_CheckBKStatus                         0x10002755   Thumb Code   152  sflash.o(.text)
    .text                                    0x10002a9c   Section        0  xflash.o(.text)
    XF_PageProgram                           0x10002ac3   Thumb Code    54  xflash.o(.text)
    XF_Read                                  0x10002b63   Thumb Code    24  xflash.o(.text)
    XF_CheckBKStatus                         0x10002b7b   Thumb Code   196  xflash.o(.text)
    XF_WriteSector                           0x10002c61   Thumb Code   480  xflash.o(.text)
    .text                                    0x10002ee4   Section        0  sdsi.o(.text)
    .text                                    0x10003a14   Section        0  sdi.o(.text)
    .text                                    0x10004d60   Section        0  bulkitem.o(.text)
    .text                                    0x10005418   Section        0  bulkusb.o(.text)
    .text                                    0x1000552c   Section        0  ctrlitem.o(.text)
    .text                                    0x100059e8   Section        0  ctrlusb.o(.text)
    .text                                    0x10005a50   Section        0  usbbase.o(.text)
    NVIC_DisableIRQ                          0x10006527   Thumb Code    20  usbbase.o(.text)
    .text                                    0x1000655c   Section        0  usbprotocol.o(.text)
    .text                                    0x100066e0   Section        0  main.o(.text)
    .text                                    0x10006828   Section        0  command.o(.text)
    .text                                    0x10011f18   Section        0  sdmemacc.o(.text)
    .text                                    0x10012600   Section        0  log.o(.text)
    .text                                    0x100126ac   Section        0  sd_systemapp.o(.text)
    SD_ReadDataFromMemory                    0x10013195   Thumb Code    24  sd_systemapp.o(.text)
    SD_WriteDataToMemory                     0x100131ad   Thumb Code    24  sd_systemapp.o(.text)
    .text                                    0x100131f0   Section        0  commandex.o(.text)
    .text                                    0x100133b4   Section        0  ff.o(.text)
    mem_cpy                                  0x100133b5   Thumb Code    26  ff.o(.text)
    mem_set                                  0x100133cf   Thumb Code    20  ff.o(.text)
    mem_cmp                                  0x100133e3   Thumb Code    40  ff.o(.text)
    chk_chr                                  0x1001340b   Thumb Code    22  ff.o(.text)
    sync_window                              0x10013421   Thumb Code    82  ff.o(.text)
    move_window                              0x10013473   Thumb Code    54  ff.o(.text)
    sync_fs                                  0x100134a9   Thumb Code   302  ff.o(.text)
    remove_chain                             0x10013833   Thumb Code   108  ff.o(.text)
    create_chain                             0x1001389f   Thumb Code   210  ff.o(.text)
    find_continuous_chain                    0x10013971   Thumb Code   228  ff.o(.text)
    dir_sdi                                  0x10013a55   Thumb Code   160  ff.o(.text)
    dir_next                                 0x10013af5   Thumb Code   272  ff.o(.text)
    dir_alloc                                0x10013c05   Thumb Code    94  ff.o(.text)
    ld_clust                                 0x10013c63   Thumb Code    34  ff.o(.text)
    st_clust                                 0x10013c85   Thumb Code    20  ff.o(.text)
    dir_find                                 0x10013c99   Thumb Code   100  ff.o(.text)
    dir_read                                 0x10013cfd   Thumb Code   122  ff.o(.text)
    dir_register                             0x10013d77   Thumb Code    62  ff.o(.text)
    dir_remove                               0x10013db5   Thumb Code    58  ff.o(.text)
    get_fileinfo                             0x10013def   Thumb Code   110  ff.o(.text)
    create_name                              0x10013e5d   Thumb Code   348  ff.o(.text)
    follow_path                              0x10013fb9   Thumb Code   146  ff.o(.text)
    get_ldnumber                             0x1001404b   Thumb Code    76  ff.o(.text)
    check_fs1                                0x10014097   Thumb Code    68  ff.o(.text)
    check_fs                                 0x100140db   Thumb Code   152  ff.o(.text)
    find_volume                              0x10014173   Thumb Code  1244  ff.o(.text)
    validate                                 0x1001464f   Thumb Code    60  ff.o(.text)
    .text                                    0x100155e4   Section        0  diskio.o(.text)
    .text                                    0x10015800   Section        0  romfunc.o(.text)
    .text                                    0x10015a14   Section        0  sha-1.o(.text)
    .text                                    0x10016f44   Section        0  sm3.o(.text)
    .text                                    0x100171d0   Section        0  sha-256.o(.text)
    SHA256_Process                           0x100171f9   Thumb Code 11508  sha-256.o(.text)
    .text                                    0x1001a0c8   Section        0  aes.o(.text)
    .text                                    0x1001a6a8   Section        0  sm1.o(.text)
    .text                                    0x1001acfc   Section        0  algbase.o(.text)
    .text                                    0x1001ada4   Section        0  sms4.o(.text)
    .text                                    0x1001b5d8   Section        0  ssf33alg.o(.text)
    .text                                    0x1001bb78   Section        0  nn.o(.text)
    __get_PRIMASK                            0x1001cc97   Thumb Code     6  nn.o(.text)
    __set_PRIMASK                            0x1001cc9d   Thumb Code     6  nn.o(.text)
    .text                                    0x1001ccb8   Section        0  r_keygen.o(.text)
    RSAFilter                                0x1001ccb9   Thumb Code    74  r_keygen.o(.text)
    .text                                    0x1001d1a8   Section        0  syrsa.o(.text)
    .text                                    0x1001dfb8   Section        0  sm2.o(.text)
    __get_PRIMASK                            0x100200b3   Thumb Code     6  sm2.o(.text)
    __set_PRIMASK                            0x100200b9   Thumb Code     6  sm2.o(.text)
    .text                                    0x100200c0   Section        0  filesystem.o(.text)
    .text                                    0x10021028   Section        0  ssf33.o(.text)
    F                                        0x10021029   Thumb Code   398  ssf33.o(.text)
    .text                                    0x10021490   Section        0  prime.o(.text)
    .text                                    0x10021784   Section        0  bigdigits.o(.text)
    .text                                    0x100218dc   Section        0  elliptic-ffp.o(.text)
    .text                                    0x10021cb4   Section        0  r_random.o(.text)
    .text                                    0x10021ccc   Section        0  hardecc.o(.text)
    .text                                    0x100228a8   Section        2  use_no_semi.o(.text)
    .text                                    0x100228aa   Section        0  llshl.o(.text)
    .text                                    0x100228ca   Section        0  llushr.o(.text)
    .text                                    0x100228ec   Section        0  c89vsnprintf.o(.text)
    .text                                    0x10022920   Section        0  __2printf.o(.text)
    .text                                    0x1002293c   Section        0  _printf_pad.o(.text)
    .text                                    0x1002298a   Section        0  _printf_str.o(.text)
    .text                                    0x100229dc   Section        0  _printf_dec.o(.text)
    .text                                    0x10022a48   Section        0  _printf_hex_int_ll_ptr.o(.text)
    _printf_hex_common                       0x10022a49   Thumb Code     0  _printf_hex_int_ll_ptr.o(.text)
    .text                                    0x10022ae0   Section        0  __printf_flags_ss_wp.o(.text)
    .text                                    0x10022c68   Section        0  memcmp.o(.text)
    .text                                    0x10022cc4   Section        0  strcpy.o(.text)
    .text                                    0x10022d10   Section        0  strlen.o(.text)
    .text                                    0x10022d54   Section        0  strcat.o(.text)
    .text                                    0x10022d6c   Section        0  rt_memcpy.o(.text)
    .text                                    0x10022dee   Section        0  aeabi_memset.o(.text)
    .text                                    0x10022e00   Section        0  rt_memclr.o(.text)
    .text                                    0x10022e40   Section        0  strcmp.o(.text)
    .text                                    0x10022ec8   Section        0  uread4.o(.text)
    .text                                    0x10022eea   Section        0  uwrite4.o(.text)
    .text                                    0x10022efa   Section      346  aeabi_sdiv.o(.text)
    .text                                    0x10023054   Section        0  heapauxi.o(.text)
    .text                                    0x1002305c   Section        0  ddiv.o(.text)
    .text                                    0x10023494   Section        0  dfixui.o(.text)
    .text                                    0x100234dc   Section        0  dflti.o(.text)
    .text                                    0x10023534   Section        0  dmul.o(.text)
    .text                                    0x100237c4   Section        0  _printf_truncate.o(.text)
    .text                                    0x100237e8   Section        0  _printf_intcommon.o(.text)
    .text                                    0x10023898   Section        0  _printf_charcount.o(.text)
    .text                                    0x100238c0   Section        0  _printf_char_common.o(.text)
    _printf_input_char                       0x100238c1   Thumb Code    10  _printf_char_common.o(.text)
    .text                                    0x100238f0   Section        0  _sputc.o(.text)
    .text                                    0x100238fa   Section        0  _snputc.o(.text)
    .text                                    0x1002390a   Section        0  _printf_char.o(.text)
    .text                                    0x10023938   Section        0  _printf_char_file.o(.text)
    .text                                    0x10023960   Section        0  _printf_wctomb.o(.text)
    .text                                    0x10023a1c   Section        0  _printf_longlong_dec.o(.text)
    .text                                    0x10023a8c   Section        0  _printf_oct_int_ll.o(.text)
    _printf_longlong_oct_internal            0x10023a8d   Thumb Code     0  _printf_oct_int_ll.o(.text)
    .text                                    0x10023afc   Section        0  rtudiv10.o(.text)
    .text                                    0x10023b24   Section        0  lludiv10.o(.text)
    .text                                    0x10023ba0   Section        0  _printf_fp_dec.o(.text)
    _fp_digits                               0x10023ba3   Thumb Code   412  _printf_fp_dec.o(.text)
    .text                                    0x10023fb4   Section        0  _printf_wchar.o(.text)
    .text                                    0x10023fe2   Section        0  _wcrtomb.o(.text)
    .text                                    0x10024026   Section       62  sys_stackheap_outer.o(.text)
    .text                                    0x10024064   Section       16  rt_ctype_table.o(.text)
    .text                                    0x10024074   Section        8  rt_locale_intlibspace.o(.text)
    .text                                    0x1002407c   Section        0  _printf_fp_infnan.o(.text)
    .text                                    0x10024104   Section        0  bigflt0.o(.text)
    .text                                    0x100241d0   Section        0  btod.o(.text)
    btod_internal_mul                        0x10024211   Thumb Code   456  btod.o(.text)
    btod_internal_div                        0x100243d9   Thumb Code   494  btod.o(.text)
    .text                                    0x10024678   Section        0  exit.o(.text)
    .text                                    0x10024684   Section        8  libspace.o(.text)
    i.EFC_WrProtect                          0x1002468c   Section        0  efc.o(i.EFC_WrProtect)
    i.SCM_DisableModClk                      0x10024698   Section        0  spi.o(i.SCM_DisableModClk)
    i.SCM_EnableModClk                       0x100246ac   Section        0  spi.o(i.SCM_EnableModClk)
    i.SCM_KeepModRst                         0x100246c0   Section        0  spi.o(i.SCM_KeepModRst)
    i.SCM_ReleaseModRst                      0x100246d4   Section        0  spi.o(i.SCM_ReleaseModRst)
    i.SQI_WrProtect                          0x100246e8   Section        0  sqi.o(i.SQI_WrProtect)
    i.__ARM_common_ll_muluu                  0x100246f4   Section        0  sci.o(i.__ARM_common_ll_muluu)
    i.__ARM_common_switch8                   0x10024724   Section        0  sqi.o(i.__ARM_common_switch8)
    i.__ARM_fpclassify                       0x10024740   Section        0  fpclassify.o(i.__ARM_fpclassify)
    i._is_digit                              0x1002476c   Section        0  __printf_wp.o(i._is_digit)
    locale$$code                             0x1002477c   Section       44  lc_numeric_c.o(locale$$code)
    locale$$code                             0x100247a8   Section       44  lc_ctype_c.o(locale$$code)
    x$fpl$printf1                            0x100247d4   Section       16  printf1.o(x$fpl$printf1)
    .constdata                               0x100247e4   Section       42  bulkitem.o(.constdata)
    x$fpl$usenofp                            0x100247e4   Section        0  usenofp.o(x$fpl$usenofp)
    .constdata                               0x1002480e   Section      134  ctrlitem.o(.constdata)
    .constdata                               0x10024894   Section       52  ctrlusb.o(.constdata)
    .constdata                               0x100248c8   Section     1804  command.o(.constdata)
    __FUNCTION__                             0x100248e8   Data           8  command.o(.constdata)
    __FUNCTION__                             0x100248f0   Data          11  command.o(.constdata)
    __FUNCTION__                             0x100248fb   Data          13  command.o(.constdata)
    __FUNCTION__                             0x10024908   Data          15  command.o(.constdata)
    __FUNCTION__                             0x10024917   Data          12  command.o(.constdata)
    __FUNCTION__                             0x10024923   Data          21  command.o(.constdata)
    __FUNCTION__                             0x10024938   Data          15  command.o(.constdata)
    __FUNCTION__                             0x10024947   Data          14  command.o(.constdata)
    __FUNCTION__                             0x10024955   Data          14  command.o(.constdata)
    __FUNCTION__                             0x10024963   Data          14  command.o(.constdata)
    __FUNCTION__                             0x10024971   Data          21  command.o(.constdata)
    __FUNCTION__                             0x10024986   Data          22  command.o(.constdata)
    __FUNCTION__                             0x1002499c   Data          20  command.o(.constdata)
    __FUNCTION__                             0x100249b0   Data          22  command.o(.constdata)
    __FUNCTION__                             0x100249c6   Data          20  command.o(.constdata)
    __FUNCTION__                             0x100249da   Data          21  command.o(.constdata)
    __FUNCTION__                             0x100249ef   Data          15  command.o(.constdata)
    __FUNCTION__                             0x100249fe   Data          15  command.o(.constdata)
    __FUNCTION__                             0x10024a0d   Data          13  command.o(.constdata)
    __FUNCTION__                             0x10024a1a   Data          16  command.o(.constdata)
    __FUNCTION__                             0x10024a2a   Data          13  command.o(.constdata)
    __FUNCTION__                             0x10024a37   Data          14  command.o(.constdata)
    __FUNCTION__                             0x10024a45   Data          20  command.o(.constdata)
    __FUNCTION__                             0x10024a59   Data          18  command.o(.constdata)
    __FUNCTION__                             0x10024a6b   Data          19  command.o(.constdata)
    __FUNCTION__                             0x10024a7e   Data          18  command.o(.constdata)
    __FUNCTION__                             0x10024a90   Data          26  command.o(.constdata)
    __FUNCTION__                             0x10024aaa   Data          20  command.o(.constdata)
    __FUNCTION__                             0x10024abe   Data          21  command.o(.constdata)
    __FUNCTION__                             0x10024ad3   Data          15  command.o(.constdata)
    __FUNCTION__                             0x10024ae2   Data          15  command.o(.constdata)
    __FUNCTION__                             0x10024af1   Data          15  command.o(.constdata)
    __FUNCTION__                             0x10024b00   Data          17  command.o(.constdata)
    __FUNCTION__                             0x10024b11   Data          18  command.o(.constdata)
    __FUNCTION__                             0x10024b23   Data          17  command.o(.constdata)
    __FUNCTION__                             0x10024b34   Data          21  command.o(.constdata)
    __FUNCTION__                             0x10024b49   Data          16  command.o(.constdata)
    __FUNCTION__                             0x10024b59   Data          14  command.o(.constdata)
    __FUNCTION__                             0x10024b67   Data          24  command.o(.constdata)
    __FUNCTION__                             0x10024b7f   Data          26  command.o(.constdata)
    __FUNCTION__                             0x10024b99   Data          20  command.o(.constdata)
    __FUNCTION__                             0x10024bad   Data          20  command.o(.constdata)
    __FUNCTION__                             0x10024bc1   Data          20  command.o(.constdata)
    __FUNCTION__                             0x10024bd5   Data          21  command.o(.constdata)
    __FUNCTION__                             0x10024bea   Data          18  command.o(.constdata)
    __FUNCTION__                             0x10024bfc   Data          21  command.o(.constdata)
    __FUNCTION__                             0x10024c11   Data          16  command.o(.constdata)
    __FUNCTION__                             0x10024c21   Data          14  command.o(.constdata)
    __FUNCTION__                             0x10024c2f   Data          24  command.o(.constdata)
    __FUNCTION__                             0x10024c47   Data          26  command.o(.constdata)
    __FUNCTION__                             0x10024c61   Data          18  command.o(.constdata)
    __FUNCTION__                             0x10024c73   Data          18  command.o(.constdata)
    __FUNCTION__                             0x10024c85   Data          15  command.o(.constdata)
    __FUNCTION__                             0x10024c94   Data          17  command.o(.constdata)
    __FUNCTION__                             0x10024ca5   Data          33  command.o(.constdata)
    __FUNCTION__                             0x10024cc6   Data          39  command.o(.constdata)
    __FUNCTION__                             0x10024ced   Data          23  command.o(.constdata)
    __FUNCTION__                             0x10024d04   Data          20  command.o(.constdata)
    __FUNCTION__                             0x10024d18   Data          21  command.o(.constdata)
    __FUNCTION__                             0x10024d2d   Data          18  command.o(.constdata)
    __FUNCTION__                             0x10024d3f   Data          18  command.o(.constdata)
    __FUNCTION__                             0x10024d51   Data          23  command.o(.constdata)
    __FUNCTION__                             0x10024d68   Data          25  command.o(.constdata)
    __FUNCTION__                             0x10024d81   Data          15  command.o(.constdata)
    __FUNCTION__                             0x10024d9c   Data          11  command.o(.constdata)
    __FUNCTION__                             0x10024da7   Data          17  command.o(.constdata)
    __FUNCTION__                             0x10024db8   Data          16  command.o(.constdata)
    .constdata                               0x10024fd4   Section     1559  sdmemacc.o(.constdata)
    __FUNCTION__                             0x100255d4   Data          11  sdmemacc.o(.constdata)
    __FUNCTION__                             0x100255df   Data          12  sdmemacc.o(.constdata)
    .constdata                               0x100255eb   Section       81  sd_systemapp.o(.constdata)
    mTFSystemFile                            0x100255eb   Data          16  sd_systemapp.o(.constdata)
    __FUNCTION__                             0x100255fb   Data          18  sd_systemapp.o(.constdata)
    __FUNCTION__                             0x1002560d   Data          16  sd_systemapp.o(.constdata)
    __FUNCTION__                             0x1002561d   Data          18  sd_systemapp.o(.constdata)
    __FUNCTION__                             0x1002562f   Data          13  sd_systemapp.o(.constdata)
    .constdata                               0x1002563c   Section       13  commandex.o(.constdata)
    __FUNCTION__                             0x1002563c   Data          13  commandex.o(.constdata)
    .constdata                               0x10025649   Section       64  sha-256.o(.constdata)
    sha2_padding                             0x10025649   Data          64  sha-256.o(.constdata)
    .constdata                               0x1002568c   Section     4136  aes.o(.constdata)
    Te0                                      0x1002568c   Data        1024  aes.o(.constdata)
    Te1                                      0x10025a8c   Data        1024  aes.o(.constdata)
    Te2                                      0x10025e8c   Data        1024  aes.o(.constdata)
    Te3                                      0x1002628c   Data        1024  aes.o(.constdata)
    rcon                                     0x1002668c   Data          40  aes.o(.constdata)
    .constdata                               0x100266b4   Section       16  sm1.o(.constdata)
    .constdata                               0x100266c4   Section      400  sms4.o(.constdata)
    .constdata                               0x10026854   Section      192  ssf33.o(.constdata)
    .constdata                               0x10026914   Section      128  prime.o(.constdata)
    lnz                                      0x10026954   Data          64  prime.o(.constdata)
    .constdata                               0x10026994   Section     1140  elliptic-ffp.o(.constdata)
    .constdata                               0x10026e08   Section      380  hardecc.o(.constdata)
    .constdata                               0x10026f84   Section       40  _printf_hex_int_ll_ptr.o(.constdata)
    uc_hextab                                0x10026f84   Data          20  _printf_hex_int_ll_ptr.o(.constdata)
    lc_hextab                                0x10026f98   Data          20  _printf_hex_int_ll_ptr.o(.constdata)
    .constdata                               0x10026fac   Section       17  __printf_flags_ss_wp.o(.constdata)
    maptable                                 0x10026fac   Data          17  __printf_flags_ss_wp.o(.constdata)
    .constdata                               0x10026fbd   Section      128  ddiv.o(.constdata)
    ddiv_reciptbl                            0x10026fbd   Data         128  ddiv.o(.constdata)
    .constdata                               0x10027040   Section        8  _printf_wctomb.o(.constdata)
    initial_mbstate                          0x10027040   Data           8  _printf_wctomb.o(.constdata)
    .constdata                               0x10027048   Section      148  bigflt0.o(.constdata)
    tenpwrs_x                                0x10027048   Data          60  bigflt0.o(.constdata)
    tenpwrs_i                                0x10027084   Data          64  bigflt0.o(.constdata)
    locale$$data                             0x100270fc   Section       28  lc_numeric_c.o(locale$$data)
    __lcnum_c_name                           0x10027100   Data           2  lc_numeric_c.o(locale$$data)
    __lcnum_c_start                          0x10027108   Data           0  lc_numeric_c.o(locale$$data)
    __lcnum_c_point                          0x10027114   Data           0  lc_numeric_c.o(locale$$data)
    __lcnum_c_thousands                      0x10027116   Data           0  lc_numeric_c.o(locale$$data)
    __lcnum_c_grouping                       0x10027117   Data           0  lc_numeric_c.o(locale$$data)
    locale$$data                             0x10027118   Section      272  lc_ctype_c.o(locale$$data)
    __lcnum_c_end                            0x10027118   Data           0  lc_numeric_c.o(locale$$data)
    __lcctype_c_name                         0x1002711c   Data           2  lc_ctype_c.o(locale$$data)
    __lcctype_c_start                        0x10027124   Data           0  lc_ctype_c.o(locale$$data)
    __lcctype_c_end                          0x10027228   Data           0  lc_ctype_c.o(locale$$data)
    NO_INIT                                  0x20000030   Section       52  romfunc.o(NO_INIT)
    .data                                    0x20000070   Section        4  system_sy03.o(.data)
    .data                                    0x20000074   Section        8  retarget.o(.data)
    .data                                    0x2000007c   Section        4  scm.o(.data)
    gCntMs                                   0x2000007c   Data           2  scm.o(.data)
    gCntUs                                   0x2000007e   Data           1  scm.o(.data)
    gSysClk                                  0x2000007f   Data           1  scm.o(.data)
    .data                                    0x20000080   Section        1  serial.o(.data)
    .data                                    0x20000081   Section        2  sqi.o(.data)
    gSqiClkDiv                               0x20000081   Data           1  sqi.o(.data)
    .data                                    0x20000084   Section        9  ssi.o(.data)
    gRxBuf                                   0x20000084   Data           4  ssi.o(.data)
    gRxBufSize                               0x20000088   Data           2  ssi.o(.data)
    gRxSize                                  0x2000008a   Data           2  ssi.o(.data)
    gRxLoadMod                               0x2000008c   Data           1  ssi.o(.data)
    .data                                    0x2000008d   Section        3  swps.o(.data)
    gMutex                                   0x2000008d   Data           1  swps.o(.data)
    gSwpsState                               0x2000008e   Data           1  swps.o(.data)
    gSofOk                                   0x2000008f   Data           1  swps.o(.data)
    .data                                    0x20000090   Section       12  vpwm.o(.data)
    gpVoiceDataBuf                           0x20000090   Data           4  vpwm.o(.data)
    gnSizeOfVoiceDataBuf                     0x20000094   Data           4  vpwm.o(.data)
    gnCurrPosition                           0x20000098   Data           4  vpwm.o(.data)
    .data                                    0x2000009c   Section        4  sflash.o(.data)
    gSF_Start_Block                          0x2000009c   Data           2  sflash.o(.data)
    gSF_End_Block                            0x2000009e   Data           2  sflash.o(.data)
    .data                                    0x200000a0   Section        4  xflash.o(.data)
    gXF_Capacity                             0x200000a0   Data           4  xflash.o(.data)
    .data                                    0x200000a4   Section       16  sdsi.o(.data)
    gTotalWrBlk                              0x200000a8   Data           4  sdsi.o(.data)
    gpSdsiDev                                0x200000ac   Data           4  sdsi.o(.data)
    gpSdsiFile                               0x200000b0   Data           4  sdsi.o(.data)
    .data                                    0x200000b4   Section        1  sdi.o(.data)
    .data                                    0x200000b5   Section        3  bulkitem.o(.data)
    .data                                    0x200000b8   Section       16  bulkusb.o(.data)
    .data                                    0x200000c8   Section        1  usbbase.o(.data)
    .data                                    0x200000ca   Section        7  usbprotocol.o(.data)
    .data                                    0x200000d4   Section       16  command.o(.data)
    .data                                    0x200000e4   Section       13  sdmemacc.o(.data)
    .data                                    0x200000f4   Section       56  sd_systemapp.o(.data)
    gCmdAddr                                 0x200000f4   Data           4  sd_systemapp.o(.data)
    gCmd                                     0x200000f8   Data           1  sd_systemapp.o(.data)
    SdsiDev                                  0x20000104   Data          40  sd_systemapp.o(.data)
    .data                                    0x2000012c   Section        6  ff.o(.data)
    FatFs                                    0x2000012c   Data           4  ff.o(.data)
    Fsid                                     0x20000130   Data           2  ff.o(.data)
    .data                                    0x20000132   Section        1  algbase.o(.data)
    gRefresh                                 0x20000132   Data           1  algbase.o(.data)
    .data                                    0x20000134   Section       48  nn.o(.data)
    gCntUs                                   0x20000134   Data           4  nn.o(.data)
    .data                                    0x20000164   Section        6  filesystem.o(.data)
    .bss                                     0x2000016c   Section       32  swps.o(.bss)
    RxFrame                                  0x2000016c   Data          32  swps.o(.bss)
    .bss                                     0x2000018c   Section       24  uart.o(.bss)
    gUartTxFIFO                              0x2000018c   Data          12  uart.o(.bss)
    gUartRxFIFO                              0x20000198   Data          12  uart.o(.bss)
    .bss                                     0x200001a8   Section       48  sdi.o(.bss)
    .bss                                     0x200001d8   Section       12  ctrlitem.o(.bss)
    .bss                                     0x200001e4   Section     3896  command.o(.bss)
    .bss                                     0x2000111c   Section     4120  sdmemacc.o(.bss)
    .bss                                     0x20002134   Section      256  log.o(.bss)
    output                                   0x20002134   Data         256  log.o(.bss)
    .bss                                     0x20002234   Section       28  sd_systemapp.o(.bss)
    .bss                                     0x20002250   Section       96  libspace.o(.bss)
    HEAP_BOTTOM                              0x20002800   Section        0  startup_sy03.o(HEAP_BOTTOM)
    HEAP_TOP                                 0x20002800   Section        0  startup_sy03.o(HEAP_TOP)
    __heap_base                              0x20002800   Data           0  startup_sy03.o(HEAP_BOTTOM)
    __heap_limit                             0x20002800   Data           0  startup_sy03.o(HEAP_TOP)
    STACK_TOP                                0x20004000   Section        0  startup_sy03.o(STACK_TOP)
    __initial_sp                             0x20004000   Data           0  startup_sy03.o(STACK_TOP)
    .ARM.__AT_0x20008C00                     0x20008c00   Section      256  sy03_regs.o(.ARM.__AT_0x20008C00)
    .ARM.__AT_0x40000000                     0x40000000   Section       96  sy03_regs.o(.ARM.__AT_0x40000000)
    .ARM.__AT_0x40004000                     0x40004000   Section      240  sy03_regs.o(.ARM.__AT_0x40004000)
    .ARM.__AT_0x40008000                     0x40008000   Section       12  sy03_regs.o(.ARM.__AT_0x40008000)
    .ARM.__AT_0x40014000                     0x40014000   Section       40  sy03_regs.o(.ARM.__AT_0x40014000)
    .ARM.__AT_0x40018000                     0x40018000   Section       44  sy03_regs.o(.ARM.__AT_0x40018000)
    .ARM.__AT_0x40020000                     0x40020000   Section       12  sy03_regs.o(.ARM.__AT_0x40020000)
    .ARM.__AT_0x40024000                     0x40024000   Section       12  sy03_regs.o(.ARM.__AT_0x40024000)
    .ARM.__AT_0x40028000                     0x40028000   Section      256  sy03_regs.o(.ARM.__AT_0x40028000)
    .ARM.__AT_0x4002C000                     0x4002c000   Section       40  sy03_regs.o(.ARM.__AT_0x4002C000)
    .ARM.__AT_0x40030000                     0x40030000   Section       40  sy03_regs.o(.ARM.__AT_0x40030000)
    .ARM.__AT_0x40034000                     0x40034000   Section       44  sy03_regs.o(.ARM.__AT_0x40034000)
    .ARM.__AT_0x40038000                     0x40038000   Section       44  sy03_regs.o(.ARM.__AT_0x40038000)
    .ARM.__AT_0x4003C000                     0x4003c000   Section       68  sy03_regs.o(.ARM.__AT_0x4003C000)
    .ARM.__AT_0x40040000                     0x40040000   Section      136  sy03_regs.o(.ARM.__AT_0x40040000)
    .ARM.__AT_0x40044000                     0x40044000   Section        8  sy03_regs.o(.ARM.__AT_0x40044000)
    .ARM.__AT_0x40048000                     0x40048000   Section       24  sy03_regs.o(.ARM.__AT_0x40048000)
    .ARM.__AT_0x40050000                     0x40050000   Section       16  sy03_regs.o(.ARM.__AT_0x40050000)
    .ARM.__AT_0x40054000                     0x40054000   Section       52  sy03_regs.o(.ARM.__AT_0x40054000)
    .ARM.__AT_0x40058000                     0x40058000   Section       40  sy03_regs.o(.ARM.__AT_0x40058000)
    .ARM.__AT_0x4005C000                     0x4005c000   Section       16  sy03_regs.o(.ARM.__AT_0x4005C000)
    .ARM.__AT_0x40060000                     0x40060000   Section        8  sy03_regs.o(.ARM.__AT_0x40060000)
    .ARM.__AT_0x4006C000                     0x4006c000   Section       40  sy03_regs.o(.ARM.__AT_0x4006C000)
    .ARM.__AT_0x50000000                     0x50000000   Section      652  sy03_regs.o(.ARM.__AT_0x50000000)
    .ARM.__AT_0x50010000                     0x50010000   Section       52  sy03_regs.o(.ARM.__AT_0x50010000)
    .ARM.__AT_0x50020000                     0x50020000   Section       56  sy03_regs.o(.ARM.__AT_0x50020000)

    Global Symbols

    Symbol Name                              Value     Ov Type        Size  Object(Section)

    BuildAttributes$$THM_ISAv3M$S$PE$A:L22$X:L11$S22$IEEE1$IW$USESV6$~STKCKD$USESV7$~SHL$OTIME$ROPI$IEEEJ$EBA8$UX$STANDARDLIB$REQ8$PRES8$EABIv2 0x00000000   Number         0  anon$$obj.o ABSOLUTE
    __ARM_use_no_argv                        0x00000000   Number         0  main.o ABSOLUTE
    _printf_flags                            0x00000000   Number         0  printf_stubs.o ABSOLUTE
    _printf_return_value                     0x00000000   Number         0  printf_stubs.o ABSOLUTE
    _printf_sizespec                         0x00000000   Number         0  printf_stubs.o ABSOLUTE
    _printf_widthprec                        0x00000000   Number         0  printf_stubs.o ABSOLUTE
    __ARM_exceptions_init                     - Undefined Weak Reference
    __alloca_initialize                       - Undefined Weak Reference
    __cpp_initialize__aeabi_                  - Undefined Weak Reference
    __cxa_finalize                            - Undefined Weak Reference
    __sigvec_lookup                           - Undefined Weak Reference
    _atexit_init                              - Undefined Weak Reference
    _call_atexit_fns                          - Undefined Weak Reference
    _clock_init                               - Undefined Weak Reference
    _fp_trap_init                             - Undefined Weak Reference
    _fp_trap_shutdown                         - Undefined Weak Reference
    _get_lc_collate                           - Undefined Weak Reference
    _get_lc_monetary                          - Undefined Weak Reference
    _get_lc_time                              - Undefined Weak Reference
    _getenv_init                              - Undefined Weak Reference
    _handle_redirection                       - Undefined Weak Reference
    _init_alloc                               - Undefined Weak Reference
    _init_user_alloc                          - Undefined Weak Reference
    _initio                                   - Undefined Weak Reference
    _printf_fp_hex                            - Undefined Weak Reference
    _printf_mbtowc                            - Undefined Weak Reference
    _printf_wc                                - Undefined Weak Reference
    _rand_init                                - Undefined Weak Reference
    _signal_finish                            - Undefined Weak Reference
    _signal_init                              - Undefined Weak Reference
    _terminate_alloc                          - Undefined Weak Reference
    _terminate_user_alloc                     - Undefined Weak Reference
    _terminateio                              - Undefined Weak Reference
    __Vectors_Size                           0x00000100   Number         0  startup_sy03.o ABSOLUTE
    __Vectors                                0x10000000   Data           4  startup_sy03.o(RESET)
    __Vectors_End                            0x10000100   Data           0  startup_sy03.o(RESET)
    __main                                   0x10000101   Thumb Code     8  __main.o(!!!main)
    __scatterload                            0x10000109   Thumb Code     0  __scatter.o(!!!scatter)
    __scatterload_rt2                        0x10000109   Thumb Code    52  __scatter.o(!!!scatter)
    __scatterload_rt2_thumb_only             0x10000109   Thumb Code     0  __scatter.o(!!!scatter)
    __scatterload_null                       0x10000119   Thumb Code     0  __scatter.o(!!!scatter)
    __scatterload_copy                       0x10000145   Thumb Code    26  __scatter_copy.o(!!handler_copy)
    __scatterload_zeroinit                   0x10000161   Thumb Code    28  __scatter_zi.o(!!handler_zi)
    _printf_percent                          0x1000017d   Thumb Code     0  _printf_percent.o(.ARM.Collect$$_printf_percent$$00000000)
    _printf_n                                0x1000017f   Thumb Code     0  _printf_n.o(.ARM.Collect$$_printf_percent$$00000001)
    _printf_p                                0x10000189   Thumb Code     0  _printf_p.o(.ARM.Collect$$_printf_percent$$00000002)
    _printf_f                                0x10000193   Thumb Code     0  _printf_f.o(.ARM.Collect$$_printf_percent$$00000003)
    _printf_e                                0x1000019d   Thumb Code     0  _printf_e.o(.ARM.Collect$$_printf_percent$$00000004)
    _printf_g                                0x100001a7   Thumb Code     0  _printf_g.o(.ARM.Collect$$_printf_percent$$00000005)
    _printf_a                                0x100001b1   Thumb Code     0  _printf_a.o(.ARM.Collect$$_printf_percent$$00000006)
    _printf_ll                               0x100001bb   Thumb Code     0  _printf_ll.o(.ARM.Collect$$_printf_percent$$00000007)
    _printf_i                                0x100001c5   Thumb Code     0  _printf_i.o(.ARM.Collect$$_printf_percent$$00000008)
    _printf_d                                0x100001cf   Thumb Code     0  _printf_d.o(.ARM.Collect$$_printf_percent$$00000009)
    _printf_u                                0x100001d9   Thumb Code     0  _printf_u.o(.ARM.Collect$$_printf_percent$$0000000A)
    _printf_o                                0x100001e3   Thumb Code     0  _printf_o.o(.ARM.Collect$$_printf_percent$$0000000B)
    _printf_x                                0x100001ed   Thumb Code     0  _printf_x.o(.ARM.Collect$$_printf_percent$$0000000C)
    _printf_lli                              0x100001f7   Thumb Code     0  _printf_lli.o(.ARM.Collect$$_printf_percent$$0000000D)
    _printf_lld                              0x10000201   Thumb Code     0  _printf_lld.o(.ARM.Collect$$_printf_percent$$0000000E)
    _printf_llu                              0x1000020b   Thumb Code     0  _printf_llu.o(.ARM.Collect$$_printf_percent$$0000000F)
    _printf_llo                              0x10000215   Thumb Code     0  _printf_llo.o(.ARM.Collect$$_printf_percent$$00000010)
    _printf_llx                              0x1000021f   Thumb Code     0  _printf_llx.o(.ARM.Collect$$_printf_percent$$00000011)
    _printf_l                                0x10000229   Thumb Code     0  _printf_l.o(.ARM.Collect$$_printf_percent$$00000012)
    _printf_c                                0x10000233   Thumb Code     0  _printf_c.o(.ARM.Collect$$_printf_percent$$00000013)
    _printf_s                                0x1000023d   Thumb Code     0  _printf_s.o(.ARM.Collect$$_printf_percent$$00000014)
    _printf_lc                               0x10000247   Thumb Code     0  _printf_lc.o(.ARM.Collect$$_printf_percent$$00000015)
    _printf_ls                               0x10000251   Thumb Code     0  _printf_ls.o(.ARM.Collect$$_printf_percent$$00000016)
    _printf_percent_end                      0x1000025b   Thumb Code     0  _printf_percent_end.o(.ARM.Collect$$_printf_percent$$00000017)
    __rt_lib_init                            0x1000025f   Thumb Code     0  libinit.o(.ARM.Collect$$libinit$$00000000)
    __rt_lib_init_heap_1                     0x10000265   Thumb Code     0  libinit2.o(.ARM.Collect$$libinit$$00000006)
    __rt_lib_init_lc_common                  0x10000265   Thumb Code     0  libinit2.o(.ARM.Collect$$libinit$$0000000B)
    __rt_lib_init_rand_1                     0x10000265   Thumb Code     0  libinit2.o(.ARM.Collect$$libinit$$0000000A)
    __rt_lib_init_user_alloc_1               0x10000265   Thumb Code     0  libinit2.o(.ARM.Collect$$libinit$$00000008)
    __rt_lib_init_lc_collate_1               0x1000026b   Thumb Code     0  libinit2.o(.ARM.Collect$$libinit$$0000000D)
    __rt_lib_init_lc_ctype_2                 0x1000026b   Thumb Code     0  libinit2.o(.ARM.Collect$$libinit$$0000000E)
    __rt_lib_init_lc_ctype_1                 0x10000277   Thumb Code     0  libinit2.o(.ARM.Collect$$libinit$$0000000F)
    __rt_lib_init_lc_monetary_1              0x10000277   Thumb Code     0  libinit2.o(.ARM.Collect$$libinit$$00000011)
    __rt_lib_init_lc_numeric_2               0x10000277   Thumb Code     0  libinit2.o(.ARM.Collect$$libinit$$00000012)
    __rt_lib_init_alloca_1                   0x10000281   Thumb Code     0  libinit2.o(.ARM.Collect$$libinit$$0000002A)
    __rt_lib_init_argv_1                     0x10000281   Thumb Code     0  libinit2.o(.ARM.Collect$$libinit$$00000028)
    __rt_lib_init_atexit_1                   0x10000281   Thumb Code     0  libinit2.o(.ARM.Collect$$libinit$$00000017)
    __rt_lib_init_clock_1                    0x10000281   Thumb Code     0  libinit2.o(.ARM.Collect$$libinit$$0000001D)
    __rt_lib_init_cpp_1                      0x10000281   Thumb Code     0  libinit2.o(.ARM.Collect$$libinit$$0000002E)
    __rt_lib_init_exceptions_1               0x10000281   Thumb Code     0  libinit2.o(.ARM.Collect$$libinit$$0000002C)
    __rt_lib_init_fp_trap_1                  0x10000281   Thumb Code     0  libinit2.o(.ARM.Collect$$libinit$$0000001B)
    __rt_lib_init_getenv_1                   0x10000281   Thumb Code     0  libinit2.o(.ARM.Collect$$libinit$$0000001F)
    __rt_lib_init_lc_numeric_1               0x10000281   Thumb Code     0  libinit2.o(.ARM.Collect$$libinit$$00000013)
    __rt_lib_init_lc_time_1                  0x10000281   Thumb Code     0  libinit2.o(.ARM.Collect$$libinit$$00000015)
    __rt_lib_init_return                     0x10000281   Thumb Code     0  libinit2.o(.ARM.Collect$$libinit$$0000002F)
    __rt_lib_init_signal_1                   0x10000281   Thumb Code     0  libinit2.o(.ARM.Collect$$libinit$$00000019)
    __rt_lib_init_stdio_1                    0x10000281   Thumb Code     0  libinit2.o(.ARM.Collect$$libinit$$00000021)
    __rt_lib_shutdown                        0x10000283   Thumb Code     0  libshutdown.o(.ARM.Collect$$libshutdown$$00000000)
    __rt_lib_shutdown_fp_trap_1              0x10000285   Thumb Code     0  libshutdown2.o(.ARM.Collect$$libshutdown$$00000006)
    __rt_lib_shutdown_heap_1                 0x10000285   Thumb Code     0  libshutdown2.o(.ARM.Collect$$libshutdown$$0000000E)
    __rt_lib_shutdown_return                 0x10000285   Thumb Code     0  libshutdown2.o(.ARM.Collect$$libshutdown$$0000000F)
    __rt_lib_shutdown_signal_1               0x10000285   Thumb Code     0  libshutdown2.o(.ARM.Collect$$libshutdown$$00000009)
    __rt_lib_shutdown_stdio_1                0x10000285   Thumb Code     0  libshutdown2.o(.ARM.Collect$$libshutdown$$00000003)
    __rt_lib_shutdown_user_alloc_1           0x10000285   Thumb Code     0  libshutdown2.o(.ARM.Collect$$libshutdown$$0000000B)
    __rt_entry                               0x10000287   Thumb Code     0  rtentry.o(.ARM.Collect$$rtentry$$00000000)
    __rt_entry_presh_1                       0x10000287   Thumb Code     0  rtentry2.o(.ARM.Collect$$rtentry$$00000002)
    __rt_entry_sh                            0x10000287   Thumb Code     0  rtentry4.o(.ARM.Collect$$rtentry$$00000004)
    __rt_entry_li                            0x1000028d   Thumb Code     0  rtentry2.o(.ARM.Collect$$rtentry$$0000000A)
    __rt_entry_postsh_1                      0x1000028d   Thumb Code     0  rtentry2.o(.ARM.Collect$$rtentry$$00000009)
    __rt_entry_main                          0x10000291   Thumb Code     0  rtentry2.o(.ARM.Collect$$rtentry$$0000000D)
    __rt_entry_postli_1                      0x10000291   Thumb Code     0  rtentry2.o(.ARM.Collect$$rtentry$$0000000C)
    __rt_exit                                0x10000299   Thumb Code     0  rtexit.o(.ARM.Collect$$rtexit$$00000000)
    __rt_exit_ls                             0x1000029b   Thumb Code     0  rtexit2.o(.ARM.Collect$$rtexit$$00000003)
    __rt_exit_prels_1                        0x1000029b   Thumb Code     0  rtexit2.o(.ARM.Collect$$rtexit$$00000002)
    __rt_exit_exit                           0x1000029f   Thumb Code     0  rtexit2.o(.ARM.Collect$$rtexit$$00000004)
    __aeabi_memcpy4                          0x100002a5   Thumb Code    56  rt_memcpy.o(.emb_text)
    __aeabi_memcpy8                          0x100002a5   Thumb Code     0  rt_memcpy.o(.emb_text)
    Reset_Handler                            0x100002dd   Thumb Code    28  startup_sy03.o(.text)
    NMI_Handler                              0x10000301   Thumb Code     2  startup_sy03.o(.text)
    HardFault_Handler                        0x10000303   Thumb Code     2  startup_sy03.o(.text)
    SVC_Handler                              0x10000305   Thumb Code     2  startup_sy03.o(.text)
    PendSV_Handler                           0x10000307   Thumb Code     2  startup_sy03.o(.text)
    SysTick_Handler                          0x10000309   Thumb Code     2  startup_sy03.o(.text)
    ACMP_Handler                             0x1000030b   Thumb Code     0  startup_sy03.o(.text)
    AEA_Handler                              0x1000030b   Thumb Code     0  startup_sy03.o(.text)
    GPIO_Handler                             0x1000030b   Thumb Code     0  startup_sy03.o(.text)
    I2C0_Handler                             0x1000030b   Thumb Code     0  startup_sy03.o(.text)
    ISO7816_Handler                          0x1000030b   Thumb Code     0  startup_sy03.o(.text)
    RTC_Handler                              0x1000030b   Thumb Code     0  startup_sy03.o(.text)
    SCI_Handler                              0x1000030b   Thumb Code     0  startup_sy03.o(.text)
    SCM_Handler                              0x1000030b   Thumb Code     0  startup_sy03.o(.text)
    SDI_Handler                              0x1000030b   Thumb Code     0  startup_sy03.o(.text)
    SEA_Handler                              0x1000030b   Thumb Code     0  startup_sy03.o(.text)
    SPI0_Handler                             0x1000030b   Thumb Code     0  startup_sy03.o(.text)
    SPI1_Handler                             0x1000030b   Thumb Code     0  startup_sy03.o(.text)
    SWPM_Handler                             0x1000030b   Thumb Code     0  startup_sy03.o(.text)
    T0_Handler                               0x1000030b   Thumb Code     0  startup_sy03.o(.text)
    T1_Handler                               0x1000030b   Thumb Code     0  startup_sy03.o(.text)
    T2_Handler                               0x1000030b   Thumb Code     0  startup_sy03.o(.text)
    TRNG_Handler                             0x1000030b   Thumb Code     0  startup_sy03.o(.text)
    __user_initial_stackheap                 0x1000030d   Thumb Code     0  startup_sy03.o(.text)
    SYS_GenSramKey                           0x10000335   Thumb Code     4  system_sy03.o(.text)
    SystemInit                               0x10000339   Thumb Code    44  system_sy03.o(.text)
    EFC_ConfigTiming                         0x10000371   Thumb Code    50  efc.o(.text)
    EFC_Program                              0x100003a3   Thumb Code    46  efc.o(.text)
    EFC_IsEraseOK                            0x100003d1   Thumb Code    40  efc.o(.text)
    EFC_Erase                                0x100003f9   Thumb Code   134  efc.o(.text)
    EFC_ClrProgFlag                          0x1000047f   Thumb Code    26  efc.o(.text)
    EFC_ChipErase                            0x10000499   Thumb Code    52  efc.o(.text)
    EFC_PageProg                             0x100004cd   Thumb Code    48  efc.o(.text)
    EFC_WriteInfo                            0x10000581   Thumb Code   226  efc.o(.text)
    EFC_ReadInfo                             0x10000663   Thumb Code    28  efc.o(.text)
    EFC_OtpWrite                             0x1000067f   Thumb Code    84  efc.o(.text)
    EFC_OtpRead                              0x100006d3   Thumb Code    50  efc.o(.text)
    EFC_ReadChipSN                           0x10000705   Thumb Code    34  efc.o(.text)
    EFC_LockJtag                             0x10000727   Thumb Code   142  efc.o(.text)
    EFC_SetEoSt                              0x100007b5   Thumb Code    88  efc.o(.text)
    EFC_LockTest                             0x1000080d   Thumb Code    72  efc.o(.text)
    fputc                                    0x10000869   Thumb Code    14  retarget.o(.text)
    fgetc                                    0x10000877   Thumb Code    16  retarget.o(.text)
    ferror                                   0x10000887   Thumb Code     8  retarget.o(.text)
    _ttywrch                                 0x1000088f   Thumb Code    12  retarget.o(.text)
    _sys_exit                                0x1000089b   Thumb Code     8  retarget.o(.text)
    SCM_AnModPowerEnable                     0x100008c7   Thumb Code    24  scm.o(.text)
    SCM_AnModPowerDisable                    0x100008df   Thumb Code    24  scm.o(.text)
    SCM_SetSysClk                            0x100008f7   Thumb Code   272  scm.o(.text)
    SCM_GetSysClk                            0x10000a07   Thumb Code     6  scm.o(.text)
    SCM_SetSysClkLowFreq                     0x10000a0d   Thumb Code    24  scm.o(.text)
    SCM_RecoverSysClk                        0x10000a25   Thumb Code    82  scm.o(.text)
    SCM_HFRoscPd                             0x10000a77   Thumb Code    24  scm.o(.text)
    SCM_LoadHFRoscTrim                       0x10000a8f   Thumb Code    86  scm.o(.text)
    SCM_SetBodLv                             0x10000ae5   Thumb Code    72  scm.o(.text)
    SCM_EnableTpr                            0x10000b2d   Thumb Code    28  scm.o(.text)
    SCM_DisableTpr                           0x10000b49   Thumb Code    26  scm.o(.text)
    SCM_UsbPhySet                            0x10000b63   Thumb Code    32  scm.o(.text)
    SCM_EnableUsbPuRes                       0x10000b83   Thumb Code    16  scm.o(.text)
    SCM_DisableUsbPuRes                      0x10000b93   Thumb Code    14  scm.o(.text)
    SCM_SetLdoPowerMode                      0x10000ba1   Thumb Code    32  scm.o(.text)
    SYST_Config                              0x10000bc1   Thumb Code    66  scm.o(.text)
    _delay_ms                                0x10000c03   Thumb Code    18  scm.o(.text)
    _delay_us                                0x10000c15   Thumb Code    18  scm.o(.text)
    SER_init                                 0x10000d05   Thumb Code   106  serial.o(.text)
    sendchar                                 0x10000d6f   Thumb Code    48  serial.o(.text)
    getkey                                   0x10000d9f   Thumb Code    34  serial.o(.text)
    ExitSimulate                             0x10000dc1   Thumb Code     2  serial.o(.text)
    WaitSqiCycles                            0x10000ddd   Thumb Code    20  sqi.o(.text)
    SQI_ReadID                               0x10000df1   Thumb Code    88  sqi.o(.text)
    SQI_WREN                                 0x10000e49   Thumb Code    36  sqi.o(.text)
    SQI_WRDI                                 0x10000e6d   Thumb Code    36  sqi.o(.text)
    SQI_HPM                                  0x10000e91   Thumb Code    34  sqi.o(.text)
    SQI_RDSR                                 0x10000eb3   Thumb Code   110  sqi.o(.text)
    SQI_WaitBusy                             0x10000f21   Thumb Code    48  sqi.o(.text)
    SQI_WRSR                                 0x10000f51   Thumb Code    66  sqi.o(.text)
    SQI_SectErase                            0x10000fd3   Thumb Code    56  sqi.o(.text)
    SQI_ChipErase                            0x1000100b   Thumb Code    70  sqi.o(.text)
    SQI_PageProg                             0x10001051   Thumb Code    18  sqi.o(.text)
    SQI_QIPageProg                           0x10001063   Thumb Code   154  sqi.o(.text)
    SQI_SetRead                              0x100010fd   Thumb Code     8  sqi.o(.text)
    SQI_SetFastRead                          0x10001105   Thumb Code     8  sqi.o(.text)
    SQI_SetDOFastRead                        0x1000110d   Thumb Code     8  sqi.o(.text)
    SQI_SetDIOFastRead                       0x10001115   Thumb Code    14  sqi.o(.text)
    SQI_SetQOFastRead                        0x10001123   Thumb Code    34  sqi.o(.text)
    SQI_SetQIOFastRead                       0x10001145   Thumb Code    38  sqi.o(.text)
    SQI_SetQIOWFastRead                      0x1000116b   Thumb Code    38  sqi.o(.text)
    SQI_Init                                 0x10001191   Thumb Code   468  sqi.o(.text)
    SQI_WriteInfo                            0x10001365   Thumb Code    22  sqi.o(.text)
    SQI_ReadData                             0x1000137b   Thumb Code    42  sqi.o(.text)
    SQI_WriteData                            0x100013a5   Thumb Code    38  sqi.o(.text)
    SSI_PortInit                             0x100013e1   Thumb Code   140  ssi.o(.text)
    SSI_SpiSlvInit                           0x1000146d   Thumb Code   188  ssi.o(.text)
    SSI_WaitTxIdle                           0x10001529   Thumb Code    54  ssi.o(.text)
    SSI_SpiSlvWrite                          0x1000155f   Thumb Code   190  ssi.o(.text)
    SSI_StopReceive                          0x1000161d   Thumb Code    34  ssi.o(.text)
    SSI_StartReceive                         0x1000163f   Thumb Code    54  ssi.o(.text)
    SSI_GetRxSize                            0x10001675   Thumb Code     6  ssi.o(.text)
    SSI_Handler                              0x1000167b   Thumb Code   226  ssi.o(.text)
    SWPS_Init                                0x100017a5   Thumb Code   300  swps.o(.text)
    SWPS_SendFrame                           0x100018d1   Thumb Code   256  swps.o(.text)
    SWPS_GetFrame                            0x100019d1   Thumb Code   110  swps.o(.text)
    SWPS_Handler                             0x10001a3f   Thumb Code   382  swps.o(.text)
    SWPS_GetState                            0x10001bbd   Thumb Code     6  swps.o(.text)
    UART_PortInit                            0x10001be1   Thumb Code   102  uart.o(.text)
    UART_GetRegs                             0x10001c47   Thumb Code    14  uart.o(.text)
    UART_Init                                0x10001c55   Thumb Code   536  uart.o(.text)
    UART_SendByte                            0x10001e6d   Thumb Code   256  uart.o(.text)
    UART_ReceByte                            0x10001f6d   Thumb Code   170  uart.o(.text)
    UART_SendBuf                             0x10002017   Thumb Code    46  uart.o(.text)
    UART_ReceBuf                             0x10002045   Thumb Code   156  uart.o(.text)
    UARTx_IntProc                            0x100020e1   Thumb Code   320  uart.o(.text)
    UART0_Handler                            0x10002221   Thumb Code    10  uart.o(.text)
    VPWM_VoiceInit                           0x10002261   Thumb Code   156  vpwm.o(.text)
    VPWM_VoicePlay                           0x100022fd   Thumb Code   228  vpwm.o(.text)
    VPWM_GetPlayStatus                       0x100023e1   Thumb Code    18  vpwm.o(.text)
    VPWM_SetVolume                           0x100023f3   Thumb Code    38  vpwm.o(.text)
    VPWM_Handler                             0x10002419   Thumb Code   172  vpwm.o(.text)
    VPWM_PwmInit                             0x100024c5   Thumb Code    30  vpwm.o(.text)
    VPWM_PwmWaveOutput                       0x100024e3   Thumb Code    84  vpwm.o(.text)
    ReadRandData                             0x10002551   Thumb Code    26  trng.o(.text)
    Trng_WaitDone                            0x1000256b   Thumb Code    50  trng.o(.text)
    Trng_Init                                0x1000259d   Thumb Code    56  trng.o(.text)
    Trng_GenRandom                           0x100025d5   Thumb Code   102  trng.o(.text)
    Prng_GenRandom                           0x1000263b   Thumb Code    50  trng.o(.text)
    SF_WriteBlocks                           0x100027ed   Thumb Code   286  sflash.o(.text)
    SF_Init                                  0x1000290b   Thumb Code    84  sflash.o(.text)
    SF_WriteData                             0x1000295f   Thumb Code   136  sflash.o(.text)
    SF_ReadData                              0x100029e7   Thumb Code   156  sflash.o(.text)
    XF_EraseSector                           0x10002a9d   Thumb Code    38  xflash.o(.text)
    XF_Program                               0x10002af9   Thumb Code   106  xflash.o(.text)
    XF_Init                                  0x10002c3f   Thumb Code    34  xflash.o(.text)
    XF_WriteData                             0x10002e41   Thumb Code   114  xflash.o(.text)
    XF_ReadData                              0x10002eb3   Thumb Code    42  xflash.o(.text)
    SDSI_ConfigRegs                          0x10002ee5   Thumb Code   650  sdsi.o(.text)
    SDSI_ConfigRegs1                         0x1000316f   Thumb Code   586  sdsi.o(.text)
    SDSI_Init                                0x100033b9   Thumb Code   306  sdsi.o(.text)
    SDSI_IsInFile                            0x100034eb   Thumb Code    80  sdsi.o(.text)
    SDSI_Handler                             0x1000353b   Thumb Code  1216  sdsi.o(.text)
    SDI_FlushDatBuf                          0x10003a15   Thumb Code     8  sdi.o(.text)
    SDI_Wait                                 0x10003a1d   Thumb Code    24  sdi.o(.text)
    SDI_SendCmd                              0x10003a35   Thumb Code    74  sdi.o(.text)
    SDI_GetRespR1                            0x10003a7f   Thumb Code   232  sdi.o(.text)
    SDI_GetRespR2                            0x10003b67   Thumb Code    70  sdi.o(.text)
    SDI_GetRespR3                            0x10003bad   Thumb Code    38  sdi.o(.text)
    SDI_GetRespR6                            0x10003bd3   Thumb Code   102  sdi.o(.text)
    SDI_GetRespR7                            0x10003c39   Thumb Code    56  sdi.o(.text)
    SDI_SendACmd                             0x10003c71   Thumb Code    40  sdi.o(.text)
    SDI_Switch2HighSpeed                     0x10003c99   Thumb Code   116  sdi.o(.text)
    SDI_ReadSCR                              0x10003d0d   Thumb Code   134  sdi.o(.text)
    SDI_Set4BitBusWidth                      0x10003d93   Thumb Code    62  sdi.o(.text)
    SDI_SetBlockLen                          0x10003dd1   Thumb Code    88  sdi.o(.text)
    SDI_SelectCard                           0x10003e29   Thumb Code    58  sdi.o(.text)
    SDI_ReadCSD                              0x10003e63   Thumb Code    60  sdi.o(.text)
    SDI_Init                                 0x10003e9f   Thumb Code   954  sdi.o(.text)
    SDI_ReadCID                              0x10004259   Thumb Code    60  sdi.o(.text)
    SDI_DeselectCard                         0x10004295   Thumb Code    44  sdi.o(.text)
    SDI_GetNumOfWrBlk                        0x100042c1   Thumb Code   112  sdi.o(.text)
    SDI_ReadBlock                            0x10004331   Thumb Code   134  sdi.o(.text)
    SDI_ReadMultiBlock1st                    0x100043b7   Thumb Code   262  sdi.o(.text)
    SDI_ReadMultiBlockNxt                    0x100044bd   Thumb Code   198  sdi.o(.text)
    SDI_StopTransmission                     0x10004583   Thumb Code    54  sdi.o(.text)
    SDI_WriteBlock                           0x100045b9   Thumb Code   186  sdi.o(.text)
    SDI_WriteMultiBlock1st                   0x10004673   Thumb Code   314  sdi.o(.text)
    SDI_WriteMultiBlockNxt                   0x100047ad   Thumb Code   256  sdi.o(.text)
    SDI_EraseBlock                           0x100048ad   Thumb Code   154  sdi.o(.text)
    SDI_ReadStatus                           0x10004947   Thumb Code   110  sdi.o(.text)
    SDI_GoInactiveState                      0x100049b5   Thumb Code    48  sdi.o(.text)
    SDI_ReadMultiBlockWithCmd                0x100049e5   Thumb Code   234  sdi.o(.text)
    SDI_ReadMultiBlockNoCmd                  0x10004acf   Thumb Code   150  sdi.o(.text)
    SDI_WriteMultiBlockWithCmd               0x10004b65   Thumb Code   276  sdi.o(.text)
    SDI_WriteMultiBlockNoCmd                 0x10004c79   Thumb Code   218  sdi.o(.text)
    SCSI_ModeSense6                          0x10004d61   Thumb Code    48  bulkitem.o(.text)
    SCSI_ModeSense10                         0x10004d91   Thumb Code    48  bulkitem.o(.text)
    SCSI_ReadCapacity                        0x10004dc1   Thumb Code    70  bulkitem.o(.text)
    SCSI_Inquiry                             0x10004e07   Thumb Code    52  bulkitem.o(.text)
    SCSI_ReadFormatCapacity                  0x10004e3b   Thumb Code    74  bulkitem.o(.text)
    SCSI_ReadToc                             0x10004e85   Thumb Code   210  bulkitem.o(.text)
    SCSI_GetConfigration                     0x10004f57   Thumb Code   138  bulkitem.o(.text)
    SCSI_RequestSense                        0x10004fe1   Thumb Code   124  bulkitem.o(.text)
    SCSI_CommonCmd                           0x1000505d   Thumb Code    12  bulkitem.o(.text)
    SCSI_TestUnitReady                       0x10005069   Thumb Code    70  bulkitem.o(.text)
    Disk_ReadLBA                             0x100050af   Thumb Code    80  bulkitem.o(.text)
    Disk_WriteLBA                            0x100050ff   Thumb Code   294  bulkitem.o(.text)
    SCSI_ReadLBA                             0x10005225   Thumb Code    84  bulkitem.o(.text)
    SCSI_WriteLBA                            0x10005279   Thumb Code    84  bulkitem.o(.text)
    SCSI_DoOutCmd                            0x100052cd   Thumb Code    60  bulkitem.o(.text)
    SCSI_DoInCmd                             0x10005309   Thumb Code   212  bulkitem.o(.text)
    DoSCSICmd                                0x100053dd   Thumb Code    54  bulkitem.o(.text)
    InitSCSICallBackFunc                     0x10005419   Thumb Code    20  bulkusb.o(.text)
    DealCBW                                  0x1000542d   Thumb Code    36  bulkusb.o(.text)
    ReceiveCBW                               0x10005451   Thumb Code   108  bulkusb.o(.text)
    USB_CBWHandle                            0x100054bd   Thumb Code    28  bulkusb.o(.text)
    SendCSWBack                              0x100054d9   Thumb Code    64  bulkusb.o(.text)
    Chap9_SetAddress                         0x1000552d   Thumb Code    20  ctrlitem.o(.text)
    Chap9_GetDescriptor                      0x10005541   Thumb Code   202  ctrlitem.o(.text)
    Chap9_SetConfiguration                   0x1000560b   Thumb Code    32  ctrlitem.o(.text)
    Chap9_SendACK                            0x1000562b   Thumb Code    12  ctrlitem.o(.text)
    Chap9_GetStatus                          0x10005637   Thumb Code   164  ctrlitem.o(.text)
    Chap9_SetFeature                         0x100056db   Thumb Code   122  ctrlitem.o(.text)
    Chap9_ClearFeature                       0x10005755   Thumb Code   544  ctrlitem.o(.text)
    Chap9_GetConfig                          0x10005975   Thumb Code    36  ctrlitem.o(.text)
    Chap9_GetInterface                       0x10005999   Thumb Code    36  ctrlitem.o(.text)
    Chap9_SetInterface                       0x100059bd   Thumb Code    18  ctrlitem.o(.text)
    Class_SendMaxLun                         0x100059cf   Thumb Code    20  ctrlitem.o(.text)
    USB_SetupHandle                          0x100059e9   Thumb Code    96  ctrlusb.o(.text)
    USB_ReadFIFO                             0x10005a51   Thumb Code    68  usbbase.o(.text)
    USB_BulkReceive                          0x10005a95   Thumb Code   226  usbbase.o(.text)
    USB_WriteFIFO                            0x10005b77   Thumb Code    68  usbbase.o(.text)
    USB_BulkSend                             0x10005bbb   Thumb Code   498  usbbase.o(.text)
    USB_SendZero                             0x10005dad   Thumb Code    86  usbbase.o(.text)
    USB_SetupReceive                         0x10005e03   Thumb Code   148  usbbase.o(.text)
    USB_CtrlReceive                          0x10005e97   Thumb Code   366  usbbase.o(.text)
    USB_CtrlSend                             0x10006005   Thumb Code   544  usbbase.o(.text)
    USB_SetAddress                           0x10006225   Thumb Code    22  usbbase.o(.text)
    USB_SendACK                              0x1000623b   Thumb Code    90  usbbase.o(.text)
    USB_SendStall                            0x10006295   Thumb Code    12  usbbase.o(.text)
    USB_DisConnect                           0x100062a1   Thumb Code     8  usbbase.o(.text)
    USB_Init                                 0x100062a9   Thumb Code   238  usbbase.o(.text)
    USB_Reset                                0x10006397   Thumb Code    92  usbbase.o(.text)
    USB_SendStall_Out                        0x100063f3   Thumb Code    96  usbbase.o(.text)
    USB_SendStall_In                         0x10006453   Thumb Code   136  usbbase.o(.text)
    USB_RemoteWakeWp                         0x100064db   Thumb Code    76  usbbase.o(.text)
    USB_DoWithPackage                        0x1000655d   Thumb Code   244  usbprotocol.o(.text)
    USB_BulkPoll                             0x10006651   Thumb Code   108  usbprotocol.o(.text)
    USB_Handler                              0x100066bd   Thumb Code     8  usbprotocol.o(.text)
    main                                     0x100066e1   Thumb Code   132  main.o(.text)
    SetCmdResult                             0x10006829   Thumb Code     8  command.o(.text)
    IsHasControl                             0x10006831   Thumb Code    50  command.o(.text)
    SMS4MAC                                  0x10006863   Thumb Code   376  command.o(.text)
    GetAppStateInfoById                      0x100069db   Thumb Code    38  command.o(.text)
    SaveContainerId                          0x10006a01   Thumb Code   144  command.o(.text)
    ClearContainerId                         0x10006a91   Thumb Code    88  command.o(.text)
    IsContainerIdValid                       0x10006ae9   Thumb Code    72  command.o(.text)
    SaveSessionKey                           0x10006b31   Thumb Code   146  command.o(.text)
    CleanSessionKeyState                     0x10006bc3   Thumb Code    30  command.o(.text)
    ReleaseSessionKey                        0x10006be1   Thumb Code   128  command.o(.text)
    CMD_ClearProg                            0x10006c61   Thumb Code   130  command.o(.text)
    CMD_DestroySessionKey                    0x10006ce3   Thumb Code    44  command.o(.text)
    CMD_MACFinal                             0x10006d0f   Thumb Code   100  command.o(.text)
    CMD_EncryptDecryptUpdate                 0x10006d73   Thumb Code   992  command.o(.text)
    CMD_MACUpdate                            0x10007153   Thumb Code   154  command.o(.text)
    CMD_Mac                                  0x100071ed   Thumb Code   150  command.o(.text)
    CMD_EncryptDecryptInit                   0x10007283   Thumb Code   834  command.o(.text)
    CMD_MACInit                              0x100075c5   Thumb Code    24  command.o(.text)
    CMD_DigestFinal                          0x100075dd   Thumb Code   188  command.o(.text)
    CMD_DigestUpdate                         0x10007699   Thumb Code   218  command.o(.text)
    CMD_Digest                               0x10007773   Thumb Code   302  command.o(.text)
    CMD_DigestInit                           0x100078a1   Thumb Code   852  command.o(.text)
    CMD_DecryptFinal                         0x10007bf5   Thumb Code    78  command.o(.text)
    CMD_DecryptUpdate                        0x10007c43   Thumb Code   130  command.o(.text)
    CMD_Decrypt                              0x10007cc5   Thumb Code   136  command.o(.text)
    CMD_DecryptInit                          0x10007d4d   Thumb Code    24  command.o(.text)
    CMD_EncryptFinal                         0x10007d65   Thumb Code   136  command.o(.text)
    CMD_EncryptUpdate                        0x10007ded   Thumb Code   130  command.o(.text)
    CMD_Encrypt                              0x10007e6f   Thumb Code   300  command.o(.text)
    CMD_EncryptInit                          0x10007f9b   Thumb Code    24  command.o(.text)
    CMD_ImportSymmKey                        0x10007fb3   Thumb Code   186  command.o(.text)
    CMD_ImportSessionKey                     0x1000806d   Thumb Code  1962  command.o(.text)
    CMD_ExportPublicKey                      0x10008817   Thumb Code   956  command.o(.text)
    CMD_GenerateKeyWithECC                   0x10008bd3   Thumb Code  1134  command.o(.text)
    CMD_GenerateAgreementDataAndKeyWithECC   0x10009041   Thumb Code  1274  command.o(.text)
    CMD_GenerateAgreementDataWithECC         0x1000953b   Thumb Code   586  command.o(.text)
    CMD_ExtECCVerify                         0x10009785   Thumb Code   576  command.o(.text)
    CMD_ExtECCSign                           0x100099c5   Thumb Code   360  command.o(.text)
    CMD_ExtECCDecrypt                        0x10009b2d   Thumb Code   810  command.o(.text)
    CMD_ExtECCEncrypt                        0x10009e57   Thumb Code   380  command.o(.text)
    CMD_ECCExportSessionKeyEx                0x10009fd3   Thumb Code   996  command.o(.text)
    CMD_ECCExportSessionKey                  0x1000a3b7   Thumb Code  1036  command.o(.text)
    CMD_ECCVerify                            0x1000a7c3   Thumb Code   424  command.o(.text)
    CMD_ECCSignData                          0x1000a96b   Thumb Code   912  command.o(.text)
    CMD_ImportECCkeyPair                     0x1000acfb   Thumb Code  1564  command.o(.text)
    CMD_GenECCKeyPair                        0x1000b317   Thumb Code  1066  command.o(.text)
    CMD_RSAVerify                            0x1000b741   Thumb Code  1140  command.o(.text)
    CMD_ExtRSAPriKeyOPT                      0x1000bbb5   Thumb Code   482  command.o(.text)
    CMD_ExtRSAPubKeyOPT                      0x1000bd97   Thumb Code   558  command.o(.text)
    CMD_ExtRSAEnDecrypt                      0x1000bfc5   Thumb Code  1182  command.o(.text)
    CMD_RSAExportSessionKeyEx                0x1000c463   Thumb Code   514  command.o(.text)
    CMD_RSAExportSessionKey                  0x1000c665   Thumb Code   896  command.o(.text)
    CMD_RSASignData                          0x1000c9e5   Thumb Code  1366  command.o(.text)
    CMD_ImportRSAKey                         0x1000cf3b   Thumb Code   866  command.o(.text)
    CMD_ImportRSAKeyPair                     0x1000d29d   Thumb Code  1618  command.o(.text)
    CMD_GenRSAKeyPair                        0x1000d8ef   Thumb Code  1288  command.o(.text)
    CMD_GenExtRSAkey                         0x1000ddf7   Thumb Code   708  command.o(.text)
    CMD_GenRandom                            0x1000e0bb   Thumb Code    56  command.o(.text)
    CMD_ExportCert                           0x1000e0f3   Thumb Code   450  command.o(.text)
    CMD_ImportCert                           0x1000e2b5   Thumb Code   790  command.o(.text)
    CMD_GetCONType                           0x1000e5cb   Thumb Code   156  command.o(.text)
    CMD_GetContainerInfo                     0x1000e667   Thumb Code   542  command.o(.text)
    CMD_DeleteContainerByName                0x1000e885   Thumb Code   522  command.o(.text)
    CMD_DeleteContainer                      0x1000ea8f   Thumb Code   198  command.o(.text)
    CMD_EnumContainer                        0x1000eb55   Thumb Code   140  command.o(.text)
    CMD_CloseContainer                       0x1000ebe1   Thumb Code   150  command.o(.text)
    CMD_OpenContainer                        0x1000ec77   Thumb Code   432  command.o(.text)
    CMD_CreateContainer                      0x1000ee27   Thumb Code   360  command.o(.text)
    CMD_WriteFile                            0x1000ef8f   Thumb Code   582  command.o(.text)
    CMD_ReadFile                             0x1000f1d5   Thumb Code   794  command.o(.text)
    CMD_GetFileInfo                          0x1000f4ef   Thumb Code   318  command.o(.text)
    CMD_EnumFile                             0x1000f62d   Thumb Code   392  command.o(.text)
    CMD_DeleteFile                           0x1000f7b5   Thumb Code   284  command.o(.text)
    CMD_CreateFile                           0x1000f8d1   Thumb Code   500  command.o(.text)
    CMD_CloseApplication                     0x1000fac5   Thumb Code   320  command.o(.text)
    CMD_OpenApplication                      0x1000fc05   Thumb Code   436  command.o(.text)
    CMD_DeleteApplication                    0x1000fdb9   Thumb Code   460  command.o(.text)
    CMD_EnumApplication                      0x1000ff85   Thumb Code   340  command.o(.text)
    CMD_CreateApplication                    0x100100d9   Thumb Code   568  command.o(.text)
    CMD_ClearSecureState                     0x10010311   Thumb Code   162  command.o(.text)
    CMD_UnLockPin                            0x100103b3   Thumb Code   648  command.o(.text)
    CMD_VerifyPin                            0x1001063b   Thumb Code   630  command.o(.text)
    CMD_ChangePin                            0x100108b1   Thumb Code   738  command.o(.text)
    CMD_GetPinInfo                           0x10010b93   Thumb Code   354  command.o(.text)
    CMD_ChangeDevAuthkey                     0x10010cf5   Thumb Code   586  command.o(.text)
    CMD_DevAuth                              0x10010f3f   Thumb Code   448  command.o(.text)
    CMD_GetCosInfo                           0x100110ff   Thumb Code   436  command.o(.text)
    CMD_SetLable                             0x100112b3   Thumb Code   448  command.o(.text)
    DoAS5xxCMD                               0x10011473   Thumb Code  1056  command.o(.text)
    CMD_ExportRSAKeyPair                     0x10011893   Thumb Code   912  command.o(.text)
    CMD_GenSessionKey                        0x10011c23   Thumb Code   640  command.o(.text)
    CMD_GetAppStatus                         0x10011ea3   Thumb Code    26  command.o(.text)
    SD_MemReadFromFlash                      0x10011f19   Thumb Code   104  sdmemacc.o(.text)
    SD_MemWriteToFlash                       0x10011f81   Thumb Code     6  sdmemacc.o(.text)
    SD_CmdProc                               0x10011f87   Thumb Code   634  sdmemacc.o(.text)
    SD_FlowProc                              0x10012201   Thumb Code   894  sdmemacc.o(.text)
    dbg_print_log                            0x10012601   Thumb Code    56  log.o(.text)
    dbg_print_buf                            0x10012639   Thumb Code    68  log.o(.text)
    TF_CreateDir                             0x100126ad   Thumb Code   110  sd_systemapp.o(.text)
    TF_GetSysFileAddr                        0x1001271b   Thumb Code   508  sd_systemapp.o(.text)
    SD_FileInit                              0x10012917   Thumb Code   212  sd_systemapp.o(.text)
    SD_Init                                  0x100129eb   Thumb Code   126  sd_systemapp.o(.text)
    SD_MsgProcess                            0x10012a69   Thumb Code   468  sd_systemapp.o(.text)
    SD_Read                                  0x10012c3d   Thumb Code   138  sd_systemapp.o(.text)
    SD_Write                                 0x10012cc7   Thumb Code   160  sd_systemapp.o(.text)
    SD_Erase                                 0x10012d67   Thumb Code    18  sd_systemapp.o(.text)
    SD_AppInit                               0x10012d79   Thumb Code    36  sd_systemapp.o(.text)
    TF_GetFreeSectors                        0x10012d9d   Thumb Code   154  sd_systemapp.o(.text)
    TF_GetFilesAddr                          0x10012e37   Thumb Code   862  sd_systemapp.o(.text)
    CMD_GenPrime                             0x100131f1   Thumb Code    12  commandex.o(.text)
    CMD_RandXN                               0x100131fd   Thumb Code    12  commandex.o(.text)
    CMD_FormatCD                             0x10013209   Thumb Code    42  commandex.o(.text)
    CMD_DevInit                              0x10013233   Thumb Code    12  commandex.o(.text)
    CMD_SetUpdateParam                       0x1001323f   Thumb Code    12  commandex.o(.text)
    CMD_WriteFlash                           0x1001324b   Thumb Code    12  commandex.o(.text)
    CMD_CleanFlash                           0x10013257   Thumb Code    12  commandex.o(.text)
    CMD_GetDevStatus                         0x10013263   Thumb Code    12  commandex.o(.text)
    CMD_SetBurnMode                          0x1001326f   Thumb Code    12  commandex.o(.text)
    CMD_SetDevSleep                          0x1001327b   Thumb Code    12  commandex.o(.text)
    CMD_SetDevParam                          0x10013287   Thumb Code    12  commandex.o(.text)
    CMD_GetDevInfo                           0x10013293   Thumb Code    12  commandex.o(.text)
    DoAS5xxCMDEx                             0x1001329f   Thumb Code   200  commandex.o(.text)
    clust2sect                               0x100135d7   Thumb Code    26  ff.o(.text)
    get_fat                                  0x100135f1   Thumb Code   250  ff.o(.text)
    put_fat                                  0x100136eb   Thumb Code   328  ff.o(.text)
    f_mount                                  0x1001468b   Thumb Code    92  ff.o(.text)
    f_open                                   0x100146e7   Thumb Code   364  ff.o(.text)
    f_read                                   0x10014853   Thumb Code   476  ff.o(.text)
    f_write                                  0x10014a2f   Thumb Code   514  ff.o(.text)
    f_sync                                   0x10014c31   Thumb Code   176  ff.o(.text)
    f_close                                  0x10014ce1   Thumb Code    34  ff.o(.text)
    f_lseek                                  0x10014d03   Thumb Code   442  ff.o(.text)
    f_opendir                                0x10014ebd   Thumb Code   122  ff.o(.text)
    f_closedir                               0x10014f37   Thumb Code    22  ff.o(.text)
    f_readdir                                0x10014f4d   Thumb Code    94  ff.o(.text)
    f_stat                                   0x10014fab   Thumb Code    68  ff.o(.text)
    f_getfree                                0x10014fef   Thumb Code   316  ff.o(.text)
    f_truncate                               0x1001512b   Thumb Code   198  ff.o(.text)
    f_unlink                                 0x100151f1   Thumb Code   184  ff.o(.text)
    f_mkdir                                  0x100152a9   Thumb Code   366  ff.o(.text)
    f_chmod                                  0x10015417   Thumb Code    90  ff.o(.text)
    f_rename                                 0x10015471   Thumb Code   280  ff.o(.text)
    f_utime                                  0x10015589   Thumb Code    92  ff.o(.text)
    SD_ReadSector                            0x100155e5   Thumb Code   110  diskio.o(.text)
    SD_WriteSector                           0x10015653   Thumb Code   110  diskio.o(.text)
    disk_status                              0x100156c1   Thumb Code     6  diskio.o(.text)
    disk_initialize                          0x100156c7   Thumb Code    38  diskio.o(.text)
    disk_read                                0x100156ed   Thumb Code    48  diskio.o(.text)
    disk_write                               0x1001571d   Thumb Code    46  diskio.o(.text)
    disk_ioctl                               0x1001574b   Thumb Code    20  diskio.o(.text)
    get_fattime                              0x1001575f   Thumb Code    66  diskio.o(.text)
    RomFuncInit                              0x10015801   Thumb Code   446  romfunc.o(.text)
    SHA1_Init                                0x10015a15   Thumb Code    32  sha-1.o(.text)
    transform                                0x10015a35   Thumb Code  4804  sha-1.o(.text)
    SHA1_Update                              0x10016cf9   Thumb Code   154  sha-1.o(.text)
    SHA1_Final                               0x10016d93   Thumb Code   432  sha-1.o(.text)
    SM3                                      0x10016f45   Thumb Code   256  sm3.o(.text)
    SM3_Init                                 0x10017045   Thumb Code    60  sm3.o(.text)
    CF2                                      0x10017081   Thumb Code    52  sm3.o(.text)
    SM3_Update                               0x100170b5   Thumb Code   128  sm3.o(.text)
    SM3_Final                                0x10017135   Thumb Code   150  sm3.o(.text)
    SHA256_Init                              0x100171d1   Thumb Code    40  sha-256.o(.text)
    SHA256_Update                            0x10019eed   Thumb Code   130  sha-256.o(.text)
    SHA256_Final                             0x10019f6f   Thumb Code   332  sha-256.o(.text)
    AES_set_encrypt_key                      0x1001a0c9   Thumb Code   684  aes.o(.text)
    _Aes_Run                                 0x1001a375   Thumb Code   282  aes.o(.text)
    AES_Init                                 0x1001a48f   Thumb Code   136  aes.o(.text)
    AES_Run                                  0x1001a517   Thumb Code   392  aes.o(.text)
    SM1_Init                                 0x1001a6a9   Thumb Code   192  sm1.o(.text)
    _SM_Run                                  0x1001a769   Thumb Code    92  sm1.o(.text)
    SM1_Run_ECB                              0x1001a7c5   Thumb Code    86  sm1.o(.text)
    SM1_Run_CBC                              0x1001a81b   Thumb Code   236  sm1.o(.text)
    SM1_Run_CFB                              0x1001a907   Thumb Code   322  sm1.o(.text)
    SM1_Run_OFB                              0x1001aa49   Thumb Code   324  sm1.o(.text)
    SM1_Run                                  0x1001ab8d   Thumb Code   368  sm1.o(.text)
    RefreshCache                             0x1001acfd   Thumb Code     8  algbase.o(.text)
    ChangeFmt                                0x1001ad05   Thumb Code    70  algbase.o(.text)
    AlgLib_GetVersion                        0x1001ad4b   Thumb Code    40  algbase.o(.text)
    RandWait                                 0x1001ad73   Thumb Code    22  algbase.o(.text)
    StartNoise                               0x1001ad89   Thumb Code     2  algbase.o(.text)
    EndNoise                                 0x1001ad8b   Thumb Code     2  algbase.o(.text)
    SM4_T2                                   0x1001ada5   Thumb Code    88  sms4.o(.text)
    SM4_T                                    0x1001adfd   Thumb Code   104  sms4.o(.text)
    SM4_F                                    0x1001ae65   Thumb Code    32  sms4.o(.text)
    SMS4ExternKey                            0x1001ae85   Thumb Code   160  sms4.o(.text)
    SMS4BlockEnc                             0x1001af25   Thumb Code   114  sms4.o(.text)
    SMS4BlockDec                             0x1001af97   Thumb Code   118  sms4.o(.text)
    SMS4_Run_ECB                             0x1001b00d   Thumb Code   160  sms4.o(.text)
    SMS4_Run_CBC                             0x1001b0ad   Thumb Code   276  sms4.o(.text)
    SMS4_Run_CFB                             0x1001b1c1   Thumb Code   322  sms4.o(.text)
    SMS4_Run_OFB                             0x1001b303   Thumb Code   310  sms4.o(.text)
    SMS4_Init                                0x1001b439   Thumb Code    48  sms4.o(.text)
    SMS4_Run                                 0x1001b469   Thumb Code   368  sms4.o(.text)
    SSF33_Run_ECB                            0x1001b5d9   Thumb Code   180  ssf33alg.o(.text)
    SSF33_Run_CBC                            0x1001b68d   Thumb Code   224  ssf33alg.o(.text)
    SSF33_Run_CFB                            0x1001b76d   Thumb Code   322  ssf33alg.o(.text)
    SSF33_Run_OFB                            0x1001b8af   Thumb Code   310  ssf33alg.o(.text)
    SSF33_Init                               0x1001b9e5   Thumb Code    34  ssf33alg.o(.text)
    SSF33_Run                                0x1001ba07   Thumb Code   368  ssf33alg.o(.text)
    NN_memcpy                                0x1001bb79   Thumb Code    48  nn.o(.text)
    NN_memcpy2                               0x1001bba9   Thumb Code    58  nn.o(.text)
    NN_memset                                0x1001bbe3   Thumb Code    20  nn.o(.text)
    NN_GetResult                             0x1001bbf7   Thumb Code    18  nn.o(.text)
    NN_AssignZero                            0x1001bc09   Thumb Code    18  nn.o(.text)
    NN_Assign                                0x1001bc1b   Thumb Code    18  nn.o(.text)
    NN_Decode                                0x1001bc2d   Thumb Code    70  nn.o(.text)
    NN_Encode                                0x1001bc73   Thumb Code    66  nn.o(.text)
    NN_EQ1                                   0x1001bcb5   Thumb Code    40  nn.o(.text)
    NN_Assign2Exp                            0x1001bcdd   Thumb Code    42  nn.o(.text)
    NN_RShift                                0x1001bd07   Thumb Code    60  nn.o(.text)
    NN_Cmp                                   0x1001bd43   Thumb Code    54  nn.o(.text)
    NN_Zero                                  0x1001bd79   Thumb Code    28  nn.o(.text)
    NN_Digits                                0x1001bd95   Thumb Code    38  nn.o(.text)
    NN_Add1                                  0x1001bdbb   Thumb Code    58  nn.o(.text)
    NN_Sub1                                  0x1001bdf5   Thumb Code    58  nn.o(.text)
    NN_Add                                   0x1001be2f   Thumb Code   104  nn.o(.text)
    NN_AddEx                                 0x1001be97   Thumb Code   122  nn.o(.text)
    NN_Sub                                   0x1001bf11   Thumb Code   112  nn.o(.text)
    NN_Mult                                  0x1001bf81   Thumb Code   104  nn.o(.text)
    NN_Mult2                                 0x1001bfe9   Thumb Code   108  nn.o(.text)
    NN_Div                                   0x1001c055   Thumb Code   158  nn.o(.text)
    NN_Mod                                   0x1001c0f3   Thumb Code   128  nn.o(.text)
    NN_ModMult                               0x1001c173   Thumb Code   246  nn.o(.text)
    NN_ModInv                                0x1001c269   Thumb Code   814  nn.o(.text)
    NN_ModExp                                0x1001c597   Thumb Code   324  nn.o(.text)
    NN_ModExpBase2                           0x1001c6db   Thumb Code   800  nn.o(.text)
    NN_ModExpSign                            0x1001c9fb   Thumb Code   314  nn.o(.text)
    NN_Gcd                                   0x1001cb35   Thumb Code   354  nn.o(.text)
    RSA_GenKeyPair0                          0x1001cd03   Thumb Code  1002  r_keygen.o(.text)
    RSA_GenKeyPair                           0x1001d0ed   Thumb Code   186  r_keygen.o(.text)
    RSA_PubKeyOpt                            0x1001d1a9   Thumb Code   360  syrsa.o(.text)
    RSA_PriKeyOpt_NoCRT                      0x1001d311   Thumb Code   512  syrsa.o(.text)
    RSA_PriKeyOptEx                          0x1001d511   Thumb Code   916  syrsa.o(.text)
    RSA_PriKeyOpt                            0x1001d8a5   Thumb Code  1046  syrsa.o(.text)
    RSA_PublicEncrypt                        0x1001dcbb   Thumb Code   172  syrsa.o(.text)
    RSA_PublicDecrypt                        0x1001dd67   Thumb Code   220  syrsa.o(.text)
    RSA_PrivateEncrypt                       0x1001de43   Thumb Code   152  syrsa.o(.text)
    RSA_PrivateDecrypt                       0x1001dedb   Thumb Code   216  syrsa.o(.text)
    RegularMNum                              0x1001dfb9   Thumb Code    24  sm2.o(.text)
    SM3_GetMsgValue                          0x1001dfd1   Thumb Code    40  sm2.o(.text)
    SM3_GetSignIDValue                       0x1001dff9   Thumb Code   284  sm2.o(.text)
    GetKDFValue                              0x1001e115   Thumb Code   134  sm2.o(.text)
    SM2_GenKey                               0x1001e19b   Thumb Code   148  sm2.o(.text)
    SM2_GetHashValue                         0x1001e22f   Thumb Code    80  sm2.o(.text)
    SM2_Sign                                 0x1001e27f   Thumb Code   718  sm2.o(.text)
    SM2_Verify                               0x1001e54d   Thumb Code  1376  sm2.o(.text)
    SM2_KeyExc_Init                          0x1001eaad   Thumb Code    76  sm2.o(.text)
    SM2_KeyExc_Response                      0x1001eaf9   Thumb Code   828  sm2.o(.text)
    SM2_KeyExc_Spons                         0x1001ee35   Thumb Code   840  sm2.o(.text)
    SM2_PubKeyEncrypt                        0x1001f17d   Thumb Code   686  sm2.o(.text)
    SM2_PriKeyDecrypt                        0x1001f42b   Thumb Code   564  sm2.o(.text)
    SM2_Key_Exchange                         0x1001f65f   Thumb Code  1402  sm2.o(.text)
    SM2_PubKeyEncrypt_Old                    0x1001fbd9   Thumb Code   660  sm2.o(.text)
    SM2_PriKeyDecrypt_Old                    0x1001fe6d   Thumb Code   582  sm2.o(.text)
    GetClusterAddr                           0x100200c1   Thumb Code    12  filesystem.o(.text)
    GetBlankCluster                          0x100200cd   Thumb Code    66  filesystem.o(.text)
    FindNextCluster                          0x1002010f   Thumb Code    64  filesystem.o(.text)
    FindStartCluster                         0x1002014f   Thumb Code    90  filesystem.o(.text)
    FS_UpdateFile                            0x100201a9   Thumb Code   620  filesystem.o(.text)
    FS_GetFreeSpace                          0x10020415   Thumb Code   106  filesystem.o(.text)
    FS_CreateFile                            0x1002047f   Thumb Code   520  filesystem.o(.text)
    FS_SelectFileByCluster                   0x10020687   Thumb Code   146  filesystem.o(.text)
    FS_Format                                0x10020719   Thumb Code   402  filesystem.o(.text)
    FS_ReadFile                              0x100208ab   Thumb Code   406  filesystem.o(.text)
    FS_SelectFileByID                        0x10020a41   Thumb Code   128  filesystem.o(.text)
    FS_Init                                  0x10020ac1   Thumb Code   102  filesystem.o(.text)
    FS_Enum                                  0x10020b27   Thumb Code   256  filesystem.o(.text)
    FS_SelectDirOrFileByName2                0x10020c27   Thumb Code   178  filesystem.o(.text)
    FS_SelectDirOrFileByName                 0x10020cd9   Thumb Code   228  filesystem.o(.text)
    FS_DeleteFile                            0x10020dbd   Thumb Code   422  filesystem.o(.text)
    FS_ReadNodeInfo                          0x10020f63   Thumb Code    28  filesystem.o(.text)
    FS_ReadDirNodeInfo                       0x10020f7f   Thumb Code    26  filesystem.o(.text)
    FS_ReadFileNodeInfo                      0x10020f99   Thumb Code    26  filesystem.o(.text)
    FS_WriteDirNodeInfo                      0x10020fb3   Thumb Code    26  filesystem.o(.text)
    FS_WriteFileNodeInfo                     0x10020fcd   Thumb Code    26  filesystem.o(.text)
    FS_CreateDir                             0x10020fe7   Thumb Code    12  filesystem.o(.text)
    FS_EnumDir                               0x10020ff3   Thumb Code    18  filesystem.o(.text)
    FS_EnumFile                              0x10021005   Thumb Code    20  filesystem.o(.text)
    SSF33_Encrypt_ECB                        0x100211b7   Thumb Code   202  ssf33.o(.text)
    SSF33_Decrypt_ECB                        0x10021281   Thumb Code   190  ssf33.o(.text)
    GetData                                  0x1002133f   Thumb Code    88  ssf33.o(.text)
    SSF33_ExternKey                          0x10021397   Thumb Code   250  ssf33.o(.text)
    Prime_CntLsb                             0x10021491   Thumb Code    70  prime.o(.text)
    Prime_MillerRabinTest                    0x100214d7   Thumb Code   218  prime.o(.text)
    GeneratePrime                            0x100215b1   Thumb Code   458  prime.o(.text)
    NN_Random                                0x10021785   Thumb Code    36  bigdigits.o(.text)
    NN_ModAdd                                0x100217a9   Thumb Code    78  bigdigits.o(.text)
    NN_ModSub                                0x100217f7   Thumb Code   116  bigdigits.o(.text)
    NN_And                                   0x1002186b   Thumb Code   112  bigdigits.o(.text)
    InitCurve                                0x100218dd   Thumb Code    82  elliptic-ffp.o(.text)
    Ep_Point_Copy                            0x1002192f   Thumb Code    36  elliptic-ffp.o(.text)
    Ep_Point_Zero                            0x10021953   Thumb Code    28  elliptic-ffp.o(.text)
    Ep_Point_Is_Zero                         0x1002196f   Thumb Code    40  elliptic-ffp.o(.text)
    Ep_Point_Is_Equal                        0x10021997   Thumb Code    48  elliptic-ffp.o(.text)
    Ep_Point_Is_Inverse                      0x100219c7   Thumb Code    66  elliptic-ffp.o(.text)
    Ep_Point_Inv                             0x10021a09   Thumb Code    40  elliptic-ffp.o(.text)
    Ep_Point_Double                          0x10021a31   Thumb Code   314  elliptic-ffp.o(.text)
    Ep_Point_Add                             0x10021b6b   Thumb Code    24  elliptic-ffp.o(.text)
    Ep_Point_Mul_win_s                       0x10021b83   Thumb Code    30  elliptic-ffp.o(.text)
    Ep_Point_Mul_win                         0x10021ba1   Thumb Code    56  elliptic-ffp.o(.text)
    Ep_Is_On_Curve                           0x10021bd9   Thumb Code   206  elliptic-ffp.o(.text)
    R_GenerateBytes                          0x10021cb5   Thumb Code    22  r_random.o(.text)
    ECC_ins_gen                              0x10021ccd   Thumb Code    74  hardecc.o(.text)
    ECC_AfterProcess                         0x10021d17   Thumb Code  1594  hardecc.o(.text)
    ECC_PreProcess                           0x10022351   Thumb Code   208  hardecc.o(.text)
    ECC_PointAdd                             0x10022421   Thumb Code   312  hardecc.o(.text)
    ECC_PointMult                            0x10022559   Thumb Code   362  hardecc.o(.text)
    ECC_PointMult_s                          0x100226c3   Thumb Code   460  hardecc.o(.text)
    __I$use$semihosting                      0x100228a9   Thumb Code     0  use_no_semi.o(.text)
    __use_no_semihosting_swi                 0x100228a9   Thumb Code     2  use_no_semi.o(.text)
    __aeabi_llsl                             0x100228ab   Thumb Code    32  llshl.o(.text)
    _ll_shift_l                              0x100228ab   Thumb Code     0  llshl.o(.text)
    __aeabi_llsr                             0x100228cb   Thumb Code    34  llushr.o(.text)
    _ll_ushift_r                             0x100228cb   Thumb Code     0  llushr.o(.text)
    __c89vsnprintf                           0x100228ed   Thumb Code    48  c89vsnprintf.o(.text)
    __2printf                                0x10022921   Thumb Code    22  __2printf.o(.text)
    _printf_pre_padding                      0x1002293d   Thumb Code    44  _printf_pad.o(.text)
    _printf_post_padding                     0x10022969   Thumb Code    34  _printf_pad.o(.text)
    _printf_str                              0x1002298b   Thumb Code    82  _printf_str.o(.text)
    _printf_int_dec                          0x100229dd   Thumb Code    90  _printf_dec.o(.text)
    _printf_longlong_hex                     0x10022a49   Thumb Code    88  _printf_hex_int_ll_ptr.o(.text)
    _printf_int_hex                          0x10022aa1   Thumb Code    28  _printf_hex_int_ll_ptr.o(.text)
    _printf_ll_hex                           0x10022abd   Thumb Code    10  _printf_hex_int_ll_ptr.o(.text)
    _printf_hex_ptr                          0x10022ac7   Thumb Code    22  _printf_hex_int_ll_ptr.o(.text)
    __printf                                 0x10022ae1   Thumb Code   388  __printf_flags_ss_wp.o(.text)
    memcmp                                   0x10022c69   Thumb Code    90  memcmp.o(.text)
    strcpy                                   0x10022cc5   Thumb Code    70  strcpy.o(.text)
    strlen                                   0x10022d11   Thumb Code    62  strlen.o(.text)
    strcat                                   0x10022d55   Thumb Code    24  strcat.o(.text)
    __aeabi_memcpy                           0x10022d6d   Thumb Code   130  rt_memcpy.o(.text)
    __rt_memcpy                              0x10022d6d   Thumb Code     0  rt_memcpy.o(.text)
    __aeabi_memset                           0x10022def   Thumb Code    18  aeabi_memset.o(.text)
    _memset_w                                0x10022e01   Thumb Code    26  rt_memclr.o(.text)
    _memset                                  0x10022e1b   Thumb Code    30  rt_memclr.o(.text)
    __aeabi_memclr                           0x10022e39   Thumb Code     4  rt_memclr.o(.text)
    __rt_memclr                              0x10022e39   Thumb Code     0  rt_memclr.o(.text)
    __aeabi_memclr4                          0x10022e3d   Thumb Code     0  rt_memclr.o(.text)
    __aeabi_memclr8                          0x10022e3d   Thumb Code     0  rt_memclr.o(.text)
    __rt_memclr_w                            0x10022e3d   Thumb Code     4  rt_memclr.o(.text)
    strcmp                                   0x10022e41   Thumb Code   132  strcmp.o(.text)
    __aeabi_uread4                           0x10022ec9   Thumb Code    34  uread4.o(.text)
    __rt_uread4                              0x10022ec9   Thumb Code     0  uread4.o(.text)
    __aeabi_uwrite4                          0x10022eeb   Thumb Code    16  uwrite4.o(.text)
    __rt_uwrite4                             0x10022eeb   Thumb Code     0  uwrite4.o(.text)
    __aeabi_uidiv                            0x10022efb   Thumb Code     0  aeabi_sdiv.o(.text)
    __aeabi_uidivmod                         0x10022efb   Thumb Code    20  aeabi_sdiv.o(.text)
    __aeabi_idiv                             0x10022f0f   Thumb Code     0  aeabi_sdiv.o(.text)
    __aeabi_idivmod                          0x10022f0f   Thumb Code   326  aeabi_sdiv.o(.text)
    __use_two_region_memory                  0x10023055   Thumb Code     2  heapauxi.o(.text)
    __rt_heap_escrow$2region                 0x10023057   Thumb Code     2  heapauxi.o(.text)
    __rt_heap_expand$2region                 0x10023059   Thumb Code     2  heapauxi.o(.text)
    __aeabi_ddiv                             0x1002305d   Thumb Code     0  ddiv.o(.text)
    _ddiv                                    0x1002305d   Thumb Code  1050  ddiv.o(.text)
    _drdiv                                   0x10023477   Thumb Code    20  ddiv.o(.text)
    __aeabi_d2uiz                            0x10023495   Thumb Code     0  dfixui.o(.text)
    _dfixu                                   0x10023495   Thumb Code    62  dfixui.o(.text)
    __aeabi_i2d_normalise                    0x100234dd   Thumb Code    64  dflti.o(.text)
    __aeabi_i2d                              0x1002351d   Thumb Code    16  dflti.o(.text)
    _dflt                                    0x1002351d   Thumb Code     0  dflti.o(.text)
    __aeabi_ui2d                             0x1002352d   Thumb Code     6  dflti.o(.text)
    _dfltu                                   0x1002352d   Thumb Code     0  dflti.o(.text)
    __aeabi_dmul                             0x10023535   Thumb Code     0  dmul.o(.text)
    _dmul                                    0x10023535   Thumb Code   634  dmul.o(.text)
    _printf_truncate_signed                  0x100237c5   Thumb Code    18  _printf_truncate.o(.text)
    _printf_truncate_unsigned                0x100237d7   Thumb Code    18  _printf_truncate.o(.text)
    _printf_int_common                       0x100237e9   Thumb Code   176  _printf_intcommon.o(.text)
    _printf_charcount                        0x10023899   Thumb Code    40  _printf_charcount.o(.text)
    _printf_char_common                      0x100238cb   Thumb Code    32  _printf_char_common.o(.text)
    _sputc                                   0x100238f1   Thumb Code    10  _sputc.o(.text)
    _snputc                                  0x100238fb   Thumb Code    16  _snputc.o(.text)
    _printf_cs_common                        0x1002390b   Thumb Code    22  _printf_char.o(.text)
    _printf_char                             0x10023921   Thumb Code    16  _printf_char.o(.text)
    _printf_string                           0x10023931   Thumb Code     8  _printf_char.o(.text)
    _printf_char_file                        0x10023939   Thumb Code    34  _printf_char_file.o(.text)
    _printf_wctomb                           0x10023961   Thumb Code   182  _printf_wctomb.o(.text)
    _printf_longlong_dec                     0x10023a1d   Thumb Code    94  _printf_longlong_dec.o(.text)
    _printf_longlong_oct                     0x10023a8d   Thumb Code    68  _printf_oct_int_ll.o(.text)
    _printf_int_oct                          0x10023ad1   Thumb Code    24  _printf_oct_int_ll.o(.text)
    _printf_ll_oct                           0x10023ae9   Thumb Code    10  _printf_oct_int_ll.o(.text)
    __rt_udiv10                              0x10023afd   Thumb Code    40  rtudiv10.o(.text)
    _ll_udiv10                               0x10023b25   Thumb Code   122  lludiv10.o(.text)
    __lib_sel_fp_printf                      0x10023ba1   Thumb Code     2  _printf_fp_dec.o(.text)
    _printf_fp_dec_real                      0x10023d3f   Thumb Code   618  _printf_fp_dec.o(.text)
    _printf_lcs_common                       0x10023fb5   Thumb Code    22  _printf_wchar.o(.text)
    _printf_wchar                            0x10023fcb   Thumb Code    16  _printf_wchar.o(.text)
    _printf_wstring                          0x10023fdb   Thumb Code     8  _printf_wchar.o(.text)
    _wcrtomb                                 0x10023fe3   Thumb Code    68  _wcrtomb.o(.text)
    __user_setup_stackheap                   0x10024027   Thumb Code    62  sys_stackheap_outer.o(.text)
    __rt_ctype_table                         0x10024065   Thumb Code    16  rt_ctype_table.o(.text)
    __rt_locale                              0x10024075   Thumb Code     8  rt_locale_intlibspace.o(.text)
    _printf_fp_infnan                        0x1002407d   Thumb Code   120  _printf_fp_infnan.o(.text)
    _btod_etento                             0x10024105   Thumb Code   200  bigflt0.o(.text)
    _btod_d2e                                0x100241d1   Thumb Code    64  btod.o(.text)
    _btod_emul                               0x100245c7   Thumb Code    24  btod.o(.text)
    _btod_emuld                              0x100245df   Thumb Code    60  btod.o(.text)
    _btod_ediv                               0x1002461b   Thumb Code    22  btod.o(.text)
    _btod_edivd                              0x10024631   Thumb Code    60  btod.o(.text)
    exit                                     0x10024679   Thumb Code    12  exit.o(.text)
    __user_libspace                          0x10024685   Thumb Code     8  libspace.o(.text)
    __user_perproc_libspace                  0x10024685   Thumb Code     0  libspace.o(.text)
    __user_perthread_libspace                0x10024685   Thumb Code     0  libspace.o(.text)
    EFC_WrProtect                            0x1002468d   Thumb Code     6  efc.o(i.EFC_WrProtect)
    SCM_DisableModClk                        0x10024699   Thumb Code    16  spi.o(i.SCM_DisableModClk)
    SCM_EnableModClk                         0x100246ad   Thumb Code    16  spi.o(i.SCM_EnableModClk)
    SCM_KeepModRst                           0x100246c1   Thumb Code    16  spi.o(i.SCM_KeepModRst)
    SCM_ReleaseModRst                        0x100246d5   Thumb Code    16  spi.o(i.SCM_ReleaseModRst)
    SQI_WrProtect                            0x100246e9   Thumb Code     6  sqi.o(i.SQI_WrProtect)
    __ARM_common_ll_muluu                    0x100246f5   Thumb Code    48  sci.o(i.__ARM_common_ll_muluu)
    __ARM_common_switch8                     0x10024725   Thumb Code    28  sqi.o(i.__ARM_common_switch8)
    __ARM_fpclassify                         0x10024741   Thumb Code    38  fpclassify.o(i.__ARM_fpclassify)
    _is_digit                                0x1002476d   Thumb Code    14  __printf_wp.o(i._is_digit)
    _get_lc_numeric                          0x1002477d   Thumb Code    44  lc_numeric_c.o(locale$$code)
    _get_lc_ctype                            0x100247a9   Thumb Code    44  lc_ctype_c.o(locale$$code)
    _printf_fp_dec                           0x100247d5   Thumb Code    16  printf1.o(x$fpl$printf1)
    __I$use$fp                               0x100247e5   Thumb Code     0  usenofp.o(x$fpl$usenofp)
    gsenseArray                              0x100247e4   Data          42  bulkitem.o(.constdata)
    DeviceDescFS                             0x1002480e   Data          18  ctrlitem.o(.constdata)
    ConfigDescFs                             0x10024820   Data          32  ctrlitem.o(.constdata)
    Str0Desc                                 0x10024840   Data           4  ctrlitem.o(.constdata)
    Str1Desc                                 0x10024844   Data          24  ctrlitem.o(.constdata)
    Str2Desc                                 0x1002485c   Data          30  ctrlitem.o(.constdata)
    Str3Desc                                 0x1002487a   Data          22  ctrlitem.o(.constdata)
    StrDescLenGroup                          0x10024890   Data           4  ctrlitem.o(.constdata)
    StandardDeviceRequest                    0x10024894   Data          52  ctrlusb.o(.constdata)
    gPwd                                     0x100248c8   Data          32  command.o(.constdata)
    gDBR                                     0x10024fd4   Data         512  sdmemacc.o(.constdata)
    gFAT                                     0x100251d4   Data         512  sdmemacc.o(.constdata)
    gDIR                                     0x100253d4   Data         512  sdmemacc.o(.constdata)
    SM4_S                                    0x100266c4   Data         256  sms4.o(.constdata)
    Sbox                                     0x10026854   Data         128  ssf33.o(.constdata)
    SK                                       0x100268d4   Data          64  ssf33.o(.constdata)
    SMALL_PRIMES                             0x10026914   Data          64  prime.o(.constdata)
    ECDSA256                                 0x10026994   Data         380  elliptic-ffp.o(.constdata)
    ECDSA192                                 0x10026b10   Data         380  elliptic-ffp.o(.constdata)
    SM2_256                                  0x10026c8c   Data         380  elliptic-ffp.o(.constdata)
    Region$$Table$$Base                      0x100270dc   Number         0  anon$$obj.o(Region$$Table)
    Region$$Table$$Limit                     0x100270fc   Number         0  anon$$obj.o(Region$$Table)
    __ctype                                  0x10027125   Data           0  lc_ctype_c.o(locale$$data)
    _SCM_SetSysClk                           0x20000030   Data           4  romfunc.o(NO_INIT)
    _SCM_LoadHFRoscTrim                      0x20000034   Data           4  romfunc.o(NO_INIT)
    _EFC_Program                             0x20000038   Data           4  romfunc.o(NO_INIT)
    _EFC_IsEraseOK                           0x2000003c   Data           4  romfunc.o(NO_INIT)
    _EFC_Erase                               0x20000040   Data           4  romfunc.o(NO_INIT)
    _EFC_PageProg                            0x20000044   Data           4  romfunc.o(NO_INIT)
    _EFC_ConfigTiming                        0x20000048   Data           4  romfunc.o(NO_INIT)
    _EFC_WriteInfo                           0x2000004c   Data           4  romfunc.o(NO_INIT)
    _EFC_Chip_Erase                          0x20000050   Data           4  romfunc.o(NO_INIT)
    _SQI_PageProg                            0x20000054   Data           4  romfunc.o(NO_INIT)
    _SQI_Init                                0x20000058   Data           4  romfunc.o(NO_INIT)
    _SQI_ReadInfo                            0x2000005c   Data           4  romfunc.o(NO_INIT)
    _SQI_WriteInfo                           0x20000060   Data           4  romfunc.o(NO_INIT)
    SystemFrequency                          0x20000070   Data           4  system_sy03.o(.data)
    __stdout                                 0x20000074   Data           4  retarget.o(.data)
    __stdin                                  0x20000078   Data           4  retarget.o(.data)
    SerInit                                  0x20000080   Data           1  serial.o(.data)
    gbInitSBF                                0x20000082   Data           1  sqi.o(.data)
    gInitSDICompleted                        0x200000a4   Data           1  sdsi.o(.data)
    gFlush                                   0x200000b4   Data           1  sdi.o(.data)
    gStartAutorun                            0x200000b5   Data           1  bulkitem.o(.data)
    gCountAuto                               0x200000b6   Data           1  bulkitem.o(.data)
    gSensePtr                                0x200000b7   Data           1  bulkitem.o(.data)
    g_pDoMySCSICmd                           0x200000b8   Data           4  bulkusb.o(.data)
    g_pWriteLBA                              0x200000bc   Data           4  bulkusb.o(.data)
    g_pReadLBA                               0x200000c0   Data           4  bulkusb.o(.data)
    glDiskCap                                0x200000c4   Data           4  bulkusb.o(.data)
    gUsbMode                                 0x200000c8   Data           1  usbbase.o(.data)
    gUSBFlag                                 0x200000ca   Data           1  usbprotocol.o(.data)
    gIntrOut                                 0x200000cc   Data           2  usbprotocol.o(.data)
    gIntrIn                                  0x200000ce   Data           2  usbprotocol.o(.data)
    gSysClkPar                               0x200000d0   Data           1  usbprotocol.o(.data)
    gCosVersion                              0x200000d4   Data           2  command.o(.data)
    gCurSAStatus                             0x200000d6   Data           1  command.o(.data)
    gCardStatus                              0x200000d7   Data           1  command.o(.data)
    gHashAlgID                               0x200000d8   Data           4  command.o(.data)
    gHashAlgInUse                            0x200000dc   Data           1  command.o(.data)
    AgreementKeyFlag                         0x200000dd   Data           1  command.o(.data)
    gLastSessionKeyID                        0x200000de   Data           2  command.o(.data)
    e                                        0x200000e0   Data           4  command.o(.data)
    gSystemInited                            0x200000e4   Data           1  sdmemacc.o(.data)
    gSDSIBuffAddr                            0x200000e8   Data           4  sdmemacc.o(.data)
    gApduHeader                              0x200000ec   Data           4  sdmemacc.o(.data)
    gRespondSW                               0x200000f0   Data           1  sdmemacc.o(.data)
    gSDICapacity                             0x200000fc   Data           4  sd_systemapp.o(.data)
    gSDISysMode                              0x20000100   Data           1  sd_systemapp.o(.data)
    RsaStartCode                             0x20000138   Data          44  nn.o(.data)
    gCurrentDirectoryCluster                 0x20000164   Data           2  filesystem.o(.data)
    gCurrentFileCluster                      0x20000166   Data           2  filesystem.o(.data)
    gMFCluster                               0x20000168   Data           2  filesystem.o(.data)
    gSdmcPara                                0x200001a8   Data          48  sdi.o(.bss)
    gSetupStatus                             0x200001d8   Data          12  ctrlitem.o(.bss)
    gAPPState                                0x200001e4   Data         320  command.o(.bss)
    gSessionKey                              0x20000324   Data        2400  command.o(.bss)
    gRandData                                0x20000c84   Data          16  command.o(.bss)
    gSm3Context                              0x20000c94   Data          68  command.o(.bss)
    gSHA1Context                             0x20000cd8   Data          92  command.o(.bss)
    gSHA256Context                           0x20000d34   Data         104  command.o(.bss)
    n                                        0x20000d9c   Data         256  command.o(.bss)
    p                                        0x20000e9c   Data         128  command.o(.bss)
    q                                        0x20000f1c   Data         128  command.o(.bss)
    dp                                       0x20000f9c   Data         128  command.o(.bss)
    dq                                       0x2000101c   Data         128  command.o(.bss)
    qinv                                     0x2000109c   Data         128  command.o(.bss)
    gRespDataBuf                             0x2000111c   Data        4096  sdmemacc.o(.bss)
    gApduBody                                0x2000211c   Data          12  sdmemacc.o(.bss)
    gApduResp                                0x20002128   Data          12  sdmemacc.o(.bss)
    SdsiFile                                 0x20002234   Data          28  sd_systemapp.o(.bss)
    __libspace_start                         0x20002250   Data          96  libspace.o(.bss)
    __temporary_stack_top$libspace           0x200022b0   Data           0  libspace.o(.bss)
    Image$$HEAP$$Base                        0x20002800   Number         0  anon$$obj.o(linker$$defined$$symbols)
    Image$$HEAP$$ZI$$Limit                   0x20002800   Number         0  anon$$obj.o(HEAP.bss)
    Image$$STACK$$Base                       0x20002800   Number         0  anon$$obj.o(linker$$defined$$symbols)
    Image$$STACK$$ZI$$Limit                  0x20004000   Number         0  anon$$obj.o(STACK.bss)
    SdsiADMA2DescTbl                         0x20008c00   Data         256  sy03_regs.o(.ARM.__AT_0x20008C00)
    ScmRegs                                  0x40000000   Data          96  sy03_regs.o(.ARM.__AT_0x40000000)
    GpioRegs                                 0x40004000   Data         240  sy03_regs.o(.ARM.__AT_0x40004000)
    T0Regs                                   0x40008000   Data          12  sy03_regs.o(.ARM.__AT_0x40008000)
    Spi0Regs                                 0x40014000   Data          40  sy03_regs.o(.ARM.__AT_0x40014000)
    RngRegs                                  0x40018000   Data          44  sy03_regs.o(.ARM.__AT_0x40018000)
    T1Regs                                   0x40020000   Data          12  sy03_regs.o(.ARM.__AT_0x40020000)
    T2Regs                                   0x40024000   Data          12  sy03_regs.o(.ARM.__AT_0x40024000)
    SsiRegs                                  0x40028000   Data         256  sy03_regs.o(.ARM.__AT_0x40028000)
    Uart0Regs                                0x4002c000   Data          40  sy03_regs.o(.ARM.__AT_0x4002C000)
    I2C0Regs                                 0x40030000   Data          40  sy03_regs.o(.ARM.__AT_0x40030000)
    SwpsRegs                                 0x40034000   Data          44  sy03_regs.o(.ARM.__AT_0x40034000)
    SwpmRegs                                 0x40038000   Data          44  sy03_regs.o(.ARM.__AT_0x40038000)
    Iso7816Regs                              0x4003c000   Data          68  sy03_regs.o(.ARM.__AT_0x4003C000)
    SciRegs                                  0x40040000   Data         136  sy03_regs.o(.ARM.__AT_0x40040000)
    AcmpRegs                                 0x40044000   Data           8  sy03_regs.o(.ARM.__AT_0x40044000)
    VpwmRegs                                 0x40048000   Data          24  sy03_regs.o(.ARM.__AT_0x40048000)
    RtcRegs                                  0x40050000   Data          16  sy03_regs.o(.ARM.__AT_0x40050000)
    EfcRegs                                  0x40054000   Data          52  sy03_regs.o(.ARM.__AT_0x40054000)
    SqiRegs                                  0x40058000   Data          40  sy03_regs.o(.ARM.__AT_0x40058000)
    CrcRegs                                  0x4005c000   Data          16  sy03_regs.o(.ARM.__AT_0x4005C000)
    BvdRegs                                  0x40060000   Data           8  sy03_regs.o(.ARM.__AT_0x40060000)
    Spi1Regs                                 0x4006c000   Data          40  sy03_regs.o(.ARM.__AT_0x4006C000)
    SdsiRegs                                 0x50000000   Data         652  sy03_regs.o(.ARM.__AT_0x50000000)
    UsbRegs                                  0x50010000   Data          52  sy03_regs.o(.ARM.__AT_0x50010000)
    SdiRegs                                  0x50020000   Data          56  sy03_regs.o(.ARM.__AT_0x50020000)



==============================================================================

Memory Map of the image

  Image Entry point : 0x100002dd

  Load Region LOAD_ROM (Base: 0x10000000, Size: 0x00027324, Max: 0x00040000, ABSOLUTE)

    Execution Region EXEC_ROM (Base: 0x10000000, Size: 0x00027228, Max: 0x00040000, ABSOLUTE)

    Base Addr    Size         Type   Attr      Idx    E Section Name        Object

    0x10000000   0x00000100   Data   RO           22    RESET               startup_sy03.o
    0x10000100   0x00000008   Code   RO         2279  * !!!main             c_p.l(__main.o)
    0x10000108   0x0000003c   Code   RO         2538    !!!scatter          c_p.l(__scatter.o)
    0x10000144   0x0000001a   Code   RO         2540    !!handler_copy      c_p.l(__scatter_copy.o)
    0x1000015e   0x00000002   PAD
    0x10000160   0x0000001c   Code   RO         2542    !!handler_zi        c_p.l(__scatter_zi.o)
    0x1000017c   0x00000002   Code   RO         2250    .ARM.Collect$$_printf_percent$$00000000  c_p.l(_printf_percent.o)
    0x1000017e   0x0000000a   Code   RO         2327    .ARM.Collect$$_printf_percent$$00000001  c_p.l(_printf_n.o)
    0x10000188   0x0000000a   Code   RO         2328    .ARM.Collect$$_printf_percent$$00000002  c_p.l(_printf_p.o)
    0x10000192   0x0000000a   Code   RO         2332    .ARM.Collect$$_printf_percent$$00000003  c_p.l(_printf_f.o)
    0x1000019c   0x0000000a   Code   RO         2333    .ARM.Collect$$_printf_percent$$00000004  c_p.l(_printf_e.o)
    0x100001a6   0x0000000a   Code   RO         2334    .ARM.Collect$$_printf_percent$$00000005  c_p.l(_printf_g.o)
    0x100001b0   0x0000000a   Code   RO         2335    .ARM.Collect$$_printf_percent$$00000006  c_p.l(_printf_a.o)
    0x100001ba   0x0000000a   Code   RO         2340    .ARM.Collect$$_printf_percent$$00000007  c_p.l(_printf_ll.o)
    0x100001c4   0x0000000a   Code   RO         2330    .ARM.Collect$$_printf_percent$$00000008  c_p.l(_printf_i.o)
    0x100001ce   0x0000000a   Code   RO         2249    .ARM.Collect$$_printf_percent$$00000009  c_p.l(_printf_d.o)
    0x100001d8   0x0000000a   Code   RO         2331    .ARM.Collect$$_printf_percent$$0000000A  c_p.l(_printf_u.o)
    0x100001e2   0x0000000a   Code   RO         2329    .ARM.Collect$$_printf_percent$$0000000B  c_p.l(_printf_o.o)
    0x100001ec   0x0000000a   Code   RO         2248    .ARM.Collect$$_printf_percent$$0000000C  c_p.l(_printf_x.o)
    0x100001f6   0x0000000a   Code   RO         2337    .ARM.Collect$$_printf_percent$$0000000D  c_p.l(_printf_lli.o)
    0x10000200   0x0000000a   Code   RO         2338    .ARM.Collect$$_printf_percent$$0000000E  c_p.l(_printf_lld.o)
    0x1000020a   0x0000000a   Code   RO         2339    .ARM.Collect$$_printf_percent$$0000000F  c_p.l(_printf_llu.o)
    0x10000214   0x0000000a   Code   RO         2344    .ARM.Collect$$_printf_percent$$00000010  c_p.l(_printf_llo.o)
    0x1000021e   0x0000000a   Code   RO         2345    .ARM.Collect$$_printf_percent$$00000011  c_p.l(_printf_llx.o)
    0x10000228   0x0000000a   Code   RO         2341    .ARM.Collect$$_printf_percent$$00000012  c_p.l(_printf_l.o)
    0x10000232   0x0000000a   Code   RO         2326    .ARM.Collect$$_printf_percent$$00000013  c_p.l(_printf_c.o)
    0x1000023c   0x0000000a   Code   RO         2247    .ARM.Collect$$_printf_percent$$00000014  c_p.l(_printf_s.o)
    0x10000246   0x0000000a   Code   RO         2342    .ARM.Collect$$_printf_percent$$00000015  c_p.l(_printf_lc.o)
    0x10000250   0x0000000a   Code   RO         2343    .ARM.Collect$$_printf_percent$$00000016  c_p.l(_printf_ls.o)
    0x1000025a   0x00000004   Code   RO         2336    .ARM.Collect$$_printf_percent$$00000017  c_p.l(_printf_percent_end.o)
    0x1000025e   0x00000006   Code   RO         2409    .ARM.Collect$$libinit$$00000000  c_p.l(libinit.o)
    0x10000264   0x00000000   Code   RO         2431    .ARM.Collect$$libinit$$00000006  c_p.l(libinit2.o)
    0x10000264   0x00000000   Code   RO         2433    .ARM.Collect$$libinit$$00000008  c_p.l(libinit2.o)
    0x10000264   0x00000000   Code   RO         2435    .ARM.Collect$$libinit$$0000000A  c_p.l(libinit2.o)
    0x10000264   0x00000006   Code   RO         2436    .ARM.Collect$$libinit$$0000000B  c_p.l(libinit2.o)
    0x1000026a   0x00000000   Code   RO         2438    .ARM.Collect$$libinit$$0000000D  c_p.l(libinit2.o)
    0x1000026a   0x0000000c   Code   RO         2439    .ARM.Collect$$libinit$$0000000E  c_p.l(libinit2.o)
    0x10000276   0x00000000   Code   RO         2440    .ARM.Collect$$libinit$$0000000F  c_p.l(libinit2.o)
    0x10000276   0x00000000   Code   RO         2442    .ARM.Collect$$libinit$$00000011  c_p.l(libinit2.o)
    0x10000276   0x0000000a   Code   RO         2443    .ARM.Collect$$libinit$$00000012  c_p.l(libinit2.o)
    0x10000280   0x00000000   Code   RO         2444    .ARM.Collect$$libinit$$00000013  c_p.l(libinit2.o)
    0x10000280   0x00000000   Code   RO         2446    .ARM.Collect$$libinit$$00000015  c_p.l(libinit2.o)
    0x10000280   0x00000000   Code   RO         2448    .ARM.Collect$$libinit$$00000017  c_p.l(libinit2.o)
    0x10000280   0x00000000   Code   RO         2450    .ARM.Collect$$libinit$$00000019  c_p.l(libinit2.o)
    0x10000280   0x00000000   Code   RO         2452    .ARM.Collect$$libinit$$0000001B  c_p.l(libinit2.o)
    0x10000280   0x00000000   Code   RO         2454    .ARM.Collect$$libinit$$0000001D  c_p.l(libinit2.o)
    0x10000280   0x00000000   Code   RO         2456    .ARM.Collect$$libinit$$0000001F  c_p.l(libinit2.o)
    0x10000280   0x00000000   Code   RO         2458    .ARM.Collect$$libinit$$00000021  c_p.l(libinit2.o)
    0x10000280   0x00000000   Code   RO         2462    .ARM.Collect$$libinit$$00000028  c_p.l(libinit2.o)
    0x10000280   0x00000000   Code   RO         2464    .ARM.Collect$$libinit$$0000002A  c_p.l(libinit2.o)
    0x10000280   0x00000000   Code   RO         2466    .ARM.Collect$$libinit$$0000002C  c_p.l(libinit2.o)
    0x10000280   0x00000000   Code   RO         2468    .ARM.Collect$$libinit$$0000002E  c_p.l(libinit2.o)
    0x10000280   0x00000002   Code   RO         2469    .ARM.Collect$$libinit$$0000002F  c_p.l(libinit2.o)
    0x10000282   0x00000002   Code   RO         2493    .ARM.Collect$$libshutdown$$00000000  c_p.l(libshutdown.o)
    0x10000284   0x00000000   Code   RO         2520    .ARM.Collect$$libshutdown$$00000003  c_p.l(libshutdown2.o)
    0x10000284   0x00000000   Code   RO         2523    .ARM.Collect$$libshutdown$$00000006  c_p.l(libshutdown2.o)
    0x10000284   0x00000000   Code   RO         2526    .ARM.Collect$$libshutdown$$00000009  c_p.l(libshutdown2.o)
    0x10000284   0x00000000   Code   RO         2528    .ARM.Collect$$libshutdown$$0000000B  c_p.l(libshutdown2.o)
    0x10000284   0x00000000   Code   RO         2531    .ARM.Collect$$libshutdown$$0000000E  c_p.l(libshutdown2.o)
    0x10000284   0x00000002   Code   RO         2532    .ARM.Collect$$libshutdown$$0000000F  c_p.l(libshutdown2.o)
    0x10000286   0x00000000   Code   RO         2290    .ARM.Collect$$rtentry$$00000000  c_p.l(rtentry.o)
    0x10000286   0x00000000   Code   RO         2352    .ARM.Collect$$rtentry$$00000002  c_p.l(rtentry2.o)
    0x10000286   0x00000006   Code   RO         2364    .ARM.Collect$$rtentry$$00000004  c_p.l(rtentry4.o)
    0x1000028c   0x00000000   Code   RO         2354    .ARM.Collect$$rtentry$$00000009  c_p.l(rtentry2.o)
    0x1000028c   0x00000004   Code   RO         2355    .ARM.Collect$$rtentry$$0000000A  c_p.l(rtentry2.o)
    0x10000290   0x00000000   Code   RO         2357    .ARM.Collect$$rtentry$$0000000C  c_p.l(rtentry2.o)
    0x10000290   0x00000008   Code   RO         2358    .ARM.Collect$$rtentry$$0000000D  c_p.l(rtentry2.o)
    0x10000298   0x00000002   Code   RO         2418    .ARM.Collect$$rtexit$$00000000  c_p.l(rtexit.o)
    0x1000029a   0x00000000   Code   RO         2473    .ARM.Collect$$rtexit$$00000002  c_p.l(rtexit2.o)
    0x1000029a   0x00000004   Code   RO         2474    .ARM.Collect$$rtexit$$00000003  c_p.l(rtexit2.o)
    0x1000029e   0x00000006   Code   RO         2475    .ARM.Collect$$rtexit$$00000004  c_p.l(rtexit2.o)
    0x100002a4   0x00000038   Code   RO         2259    .emb_text           c_p.l(rt_memcpy.o)
    0x100002dc   0x00000058   Code   RO           23  * .text               startup_sy03.o
    0x10000334   0x0000003c   Code   RO           27    .text               system_sy03.o
    0x10000370   0x000004f8   Code   RO          391    .text               efc.o
    0x10000868   0x0000003a   Code   RO          422    .text               retarget.o
    0x100008a2   0x00000002   PAD
    0x100008a4   0x00000460   Code   RO          471    .text               scm.o
    0x10000d04   0x000000d8   Code   RO          489    .text               serial.o
    0x10000ddc   0x00000604   Code   RO          505    .text               sqi.o
    0x100013e0   0x000003c4   Code   RO          533    .text               ssi.o
    0x100017a4   0x0000043c   Code   RO          573    .text               swps.o
    0x10001be0   0x00000680   Code   RO          639    .text               uart.o
    0x10002260   0x000002f0   Code   RO          679    .text               vpwm.o
    0x10002550   0x00000128   Code   RO          708    .text               trng.o
    0x10002678   0x00000424   Code   RO          766    .text               sflash.o
    0x10002a9c   0x00000448   Code   RO          780    .text               xflash.o
    0x10002ee4   0x00000b30   Code   RO          806    .text               sdsi.o
    0x10003a14   0x0000134c   Code   RO          821    .text               sdi.o
    0x10004d60   0x000006b8   Code   RO          840    .text               bulkitem.o
    0x10005418   0x00000114   Code   RO          856    .text               bulkusb.o
    0x1000552c   0x000004bc   Code   RO          874    .text               ctrlitem.o
    0x100059e8   0x00000068   Code   RO          893    .text               ctrlusb.o
    0x10005a50   0x00000b0c   Code   RO          908    .text               usbbase.o
    0x1000655c   0x00000184   Code   RO          934    .text               usbprotocol.o
    0x100066e0   0x00000148   Code   RO          949    .text               main.o
    0x10006828   0x0000b6f0   Code   RO          982    .text               command.o
    0x10011f18   0x000006e8   Code   RO         1002    .text               sdmemacc.o
    0x10012600   0x000000ac   Code   RO         1027    .text               log.o
    0x100126ac   0x00000b44   Code   RO         1048    .text               sd_systemapp.o
    0x100131f0   0x000001c4   Code   RO         1077    .text               commandex.o
    0x100133b4   0x00002230   Code   RO         1241    .text               ff.o
    0x100155e4   0x0000021c   Code   RO         1267    .text               diskio.o
    0x10015800   0x00000214   Code   RO         1302    .text               SY03_RomFunc.lib(romfunc.o)
    0x10015a14   0x0000152e   Code   RO         1335    .text               SY03_CRYPT.lib(sha-1.o)
    0x10016f42   0x00000002   PAD
    0x10016f44   0x0000028c   Code   RO         1356    .text               SY03_CRYPT.lib(sm3.o)
    0x100171d0   0x00002ef8   Code   RO         1421    .text               SY03_CRYPT.lib(sha-256.o)
    0x1001a0c8   0x000005e0   Code   RO         1438    .text               SY03_CRYPT.lib(aes.o)
    0x1001a6a8   0x00000654   Code   RO         1485    .text               SY03_CRYPT.lib(sm1.o)
    0x1001acfc   0x000000a8   Code   RO         1512    .text               SY03_CRYPT.lib(algbase.o)
    0x1001ada4   0x00000834   Code   RO         1544    .text               SY03_CRYPT.lib(sms4.o)
    0x1001b5d8   0x0000059e   Code   RO         1655    .text               SY03_CRYPT.lib(ssf33alg.o)
    0x1001bb76   0x00000002   PAD
    0x1001bb78   0x00001140   Code   RO         1670    .text               SY03_CRYPT.lib(nn.o)
    0x1001ccb8   0x000004ee   Code   RO         1706    .text               SY03_CRYPT.lib(r_keygen.o)
    0x1001d1a6   0x00000002   PAD
    0x1001d1a8   0x00000e10   Code   RO         1720    .text               SY03_CRYPT.lib(syrsa.o)
    0x1001dfb8   0x00002106   Code   RO         1748    .text               SY03_CRYPT.lib(sm2.o)
    0x100200be   0x00000002   PAD
    0x100200c0   0x00000f68   Code   RO         1779    .text               SY06_FwLib.lib(filesystem.o)
    0x10021028   0x00000468   Code   RO         2050    .text               SY03_CRYPT.lib(ssf33.o)
    0x10021490   0x000002f4   Code   RO         2104    .text               SY03_CRYPT.lib(prime.o)
    0x10021784   0x00000156   Code   RO         2120    .text               SY03_CRYPT.lib(bigdigits.o)
    0x100218da   0x00000002   PAD
    0x100218dc   0x000003d8   Code   RO         2134    .text               SY03_CRYPT.lib(elliptic-ffp.o)
    0x10021cb4   0x00000016   Code   RO         2153    .text               SY03_CRYPT.lib(r_random.o)
    0x10021cca   0x00000002   PAD
    0x10021ccc   0x00000bdc   Code   RO         2167    .text               SY03_CRYPT.lib(hardecc.o)
    0x100228a8   0x00000002   Code   RO         2184    .text               c_p.l(use_no_semi.o)
    0x100228aa   0x00000020   Code   RO         2186    .text               c_p.l(llshl.o)
    0x100228ca   0x00000022   Code   RO         2188    .text               c_p.l(llushr.o)
    0x100228ec   0x00000034   Code   RO         2192    .text               c_p.l(c89vsnprintf.o)
    0x10022920   0x0000001c   Code   RO         2194    .text               c_p.l(__2printf.o)
    0x1002293c   0x0000004e   Code   RO         2200    .text               c_p.l(_printf_pad.o)
    0x1002298a   0x00000052   Code   RO         2202    .text               c_p.l(_printf_str.o)
    0x100229dc   0x0000006c   Code   RO         2204    .text               c_p.l(_printf_dec.o)
    0x10022a48   0x00000098   Code   RO         2224    .text               c_p.l(_printf_hex_int_ll_ptr.o)
    0x10022ae0   0x00000188   Code   RO         2244    .text               c_p.l(__printf_flags_ss_wp.o)
    0x10022c68   0x0000005a   Code   RO         2251    .text               c_p.l(memcmp.o)
    0x10022cc2   0x00000002   PAD
    0x10022cc4   0x0000004c   Code   RO         2253    .text               c_p.l(strcpy.o)
    0x10022d10   0x00000044   Code   RO         2255    .text               c_p.l(strlen.o)
    0x10022d54   0x00000018   Code   RO         2257    .text               c_p.l(strcat.o)
    0x10022d6c   0x00000082   Code   RO         2260    .text               c_p.l(rt_memcpy.o)
    0x10022dee   0x00000012   Code   RO         2263    .text               c_p.l(aeabi_memset.o)
    0x10022e00   0x00000040   Code   RO         2265    .text               c_p.l(rt_memclr.o)
    0x10022e40   0x00000088   Code   RO         2267    .text               c_p.l(strcmp.o)
    0x10022ec8   0x00000022   Code   RO         2269    .text               c_p.l(uread4.o)
    0x10022eea   0x00000010   Code   RO         2271    .text               c_p.l(uwrite4.o)
    0x10022efa   0x0000015a   Code   RO         2273    .text               c_p.l(aeabi_sdiv.o)
    0x10023054   0x00000006   Code   RO         2277    .text               c_p.l(heapauxi.o)
    0x1002305a   0x00000002   PAD
    0x1002305c   0x00000438   Code   RO         2281    .text               fz_ps.l(ddiv.o)
    0x10023494   0x00000048   Code   RO         2284    .text               fz_ps.l(dfixui.o)
    0x100234dc   0x00000056   Code   RO         2286    .text               fz_ps.l(dflti.o)
    0x10023532   0x00000002   PAD
    0x10023534   0x00000290   Code   RO         2288    .text               fz_ps.l(dmul.o)
    0x100237c4   0x00000024   Code   RO         2299    .text               c_p.l(_printf_truncate.o)
    0x100237e8   0x000000b0   Code   RO         2301    .text               c_p.l(_printf_intcommon.o)
    0x10023898   0x00000028   Code   RO         2303    .text               c_p.l(_printf_charcount.o)
    0x100238c0   0x00000030   Code   RO         2305    .text               c_p.l(_printf_char_common.o)
    0x100238f0   0x0000000a   Code   RO         2307    .text               c_p.l(_sputc.o)
    0x100238fa   0x00000010   Code   RO         2309    .text               c_p.l(_snputc.o)
    0x1002390a   0x0000002e   Code   RO         2311    .text               c_p.l(_printf_char.o)
    0x10023938   0x00000028   Code   RO         2313    .text               c_p.l(_printf_char_file.o)
    0x10023960   0x000000bc   Code   RO         2315    .text               c_p.l(_printf_wctomb.o)
    0x10023a1c   0x00000070   Code   RO         2318    .text               c_p.l(_printf_longlong_dec.o)
    0x10023a8c   0x00000070   Code   RO         2324    .text               c_p.l(_printf_oct_int_ll.o)
    0x10023afc   0x00000028   Code   RO         2346    .text               c_p.l(rtudiv10.o)
    0x10023b24   0x0000007a   Code   RO         2368    .text               c_p.l(lludiv10.o)
    0x10023b9e   0x00000002   PAD
    0x10023ba0   0x00000414   Code   RO         2370    .text               c_p.l(_printf_fp_dec.o)
    0x10023fb4   0x0000002e   Code   RO         2374    .text               c_p.l(_printf_wchar.o)
    0x10023fe2   0x00000044   Code   RO         2376    .text               c_p.l(_wcrtomb.o)
    0x10024026   0x0000003e   Code   RO         2378    .text               c_p.l(sys_stackheap_outer.o)
    0x10024064   0x00000010   Code   RO         2381    .text               c_p.l(rt_ctype_table.o)
    0x10024074   0x00000008   Code   RO         2386    .text               c_p.l(rt_locale_intlibspace.o)
    0x1002407c   0x00000088   Code   RO         2388    .text               c_p.l(_printf_fp_infnan.o)
    0x10024104   0x000000cc   Code   RO         2390    .text               c_p.l(bigflt0.o)
    0x100241d0   0x000004a8   Code   RO         2393    .text               c_p.l(btod.o)
    0x10024678   0x0000000c   Code   RO         2398    .text               c_p.l(exit.o)
    0x10024684   0x00000008   Code   RO         2414    .text               c_p.l(libspace.o)
    0x1002468c   0x0000000c   Code   RO          400    i.EFC_WrProtect     efc.o
    0x10024698   0x00000014   Code   RO          609    i.SCM_DisableModClk  spi.o
    0x100246ac   0x00000014   Code   RO          614    i.SCM_EnableModClk  spi.o
    0x100246c0   0x00000014   Code   RO          619    i.SCM_KeepModRst    spi.o
    0x100246d4   0x00000014   Code   RO          624    i.SCM_ReleaseModRst  spi.o
    0x100246e8   0x0000000c   Code   RO          517    i.SQI_WrProtect     sqi.o
    0x100246f4   0x00000030   Code   RO          456    i.__ARM_common_ll_muluu  sci.o
    0x10024724   0x0000001c   Code   RO          522    i.__ARM_common_switch8  sqi.o
    0x10024740   0x0000002c   Code   RO         2412    i.__ARM_fpclassify  m_ps.l(fpclassify.o)
    0x1002476c   0x0000000e   Code   RO         2237    i._is_digit         c_p.l(__printf_wp.o)
    0x1002477a   0x00000002   PAD
    0x1002477c   0x0000002c   Code   RO         2396    locale$$code        c_p.l(lc_numeric_c.o)
    0x100247a8   0x0000002c   Code   RO         2423    locale$$code        c_p.l(lc_ctype_c.o)
    0x100247d4   0x00000010   Code   RO         2348    x$fpl$printf1       fz_ps.l(printf1.o)
    0x100247e4   0x00000000   Code   RO         2350    x$fpl$usenofp       fz_ps.l(usenofp.o)
    0x100247e4   0x0000002a   Data   RO          841    .constdata          bulkitem.o
    0x1002480e   0x00000086   Data   RO          876    .constdata          ctrlitem.o
    0x10024894   0x00000034   Data   RO          894    .constdata          ctrlusb.o
    0x100248c8   0x0000070c   Data   RO          984    .constdata          command.o
    0x10024fd4   0x00000617   Data   RO         1004    .constdata          sdmemacc.o
    0x100255eb   0x00000051   Data   RO         1050    .constdata          sd_systemapp.o
    0x1002563c   0x0000000d   Data   RO         1078    .constdata          commandex.o
    0x10025649   0x00000040   Data   RO         1422    .constdata          SY03_CRYPT.lib(sha-256.o)
    0x10025689   0x00000003   PAD
    0x1002568c   0x00001028   Data   RO         1439    .constdata          SY03_CRYPT.lib(aes.o)
    0x100266b4   0x00000010   Data   RO         1486    .constdata          SY03_CRYPT.lib(sm1.o)
    0x100266c4   0x00000190   Data   RO         1545    .constdata          SY03_CRYPT.lib(sms4.o)
    0x10026854   0x000000c0   Data   RO         2051    .constdata          SY03_CRYPT.lib(ssf33.o)
    0x10026914   0x00000080   Data   RO         2105    .constdata          SY03_CRYPT.lib(prime.o)
    0x10026994   0x00000474   Data   RO         2135    .constdata          SY03_CRYPT.lib(elliptic-ffp.o)
    0x10026e08   0x0000017c   Data   RO         2168    .constdata          SY03_CRYPT.lib(hardecc.o)
    0x10026f84   0x00000028   Data   RO         2225    .constdata          c_p.l(_printf_hex_int_ll_ptr.o)
    0x10026fac   0x00000011   Data   RO         2245    .constdata          c_p.l(__printf_flags_ss_wp.o)
    0x10026fbd   0x00000080   Data   RO         2282    .constdata          fz_ps.l(ddiv.o)
    0x1002703d   0x00000003   PAD
    0x10027040   0x00000008   Data   RO         2316    .constdata          c_p.l(_printf_wctomb.o)
    0x10027048   0x00000094   Data   RO         2391    .constdata          c_p.l(bigflt0.o)
    0x100270dc   0x00000020   Data   RO         2534    Region$$Table       anon$$obj.o
    0x100270fc   0x0000001c   Data   RO         2395    locale$$data        c_p.l(lc_numeric_c.o)
    0x10027118   0x00000110   Data   RO         2422    locale$$data        c_p.l(lc_ctype_c.o)


    Execution Region DATA_UNINIT (Base: 0x20000030, Size: 0x00000034, Max: 0x00000040, ABSOLUTE, UNINIT)

    Base Addr    Size         Type   Attr      Idx    E Section Name        Object

    0x20000030   0x00000034   Zero   RW         1303    NO_INIT             SY03_RomFunc.lib(romfunc.o)


    Execution Region DATA (Base: 0x20000070, Size: 0x00002240, Max: 0x00002790, ABSOLUTE)

    Base Addr    Size         Type   Attr      Idx    E Section Name        Object

    0x20000070   0x00000004   Data   RW           28    .data               system_sy03.o
    0x20000074   0x00000008   Data   RW          423    .data               retarget.o
    0x2000007c   0x00000004   Data   RW          472    .data               scm.o
    0x20000080   0x00000001   Data   RW          490    .data               serial.o
    0x20000081   0x00000002   Data   RW          506    .data               sqi.o
    0x20000083   0x00000001   PAD
    0x20000084   0x00000009   Data   RW          534    .data               ssi.o
    0x2000008d   0x00000003   Data   RW          575    .data               swps.o
    0x20000090   0x0000000c   Data   RW          680    .data               vpwm.o
    0x2000009c   0x00000004   Data   RW          767    .data               sflash.o
    0x200000a0   0x00000004   Data   RW          781    .data               xflash.o
    0x200000a4   0x00000010   Data   RW          807    .data               sdsi.o
    0x200000b4   0x00000001   Data   RW          823    .data               sdi.o
    0x200000b5   0x00000003   Data   RW          842    .data               bulkitem.o
    0x200000b8   0x00000010   Data   RW          857    .data               bulkusb.o
    0x200000c8   0x00000001   Data   RW          909    .data               usbbase.o
    0x200000c9   0x00000001   PAD
    0x200000ca   0x00000007   Data   RW          935    .data               usbprotocol.o
    0x200000d1   0x00000003   PAD
    0x200000d4   0x00000010   Data   RW          985    .data               command.o
    0x200000e4   0x0000000d   Data   RW         1005    .data               sdmemacc.o
    0x200000f1   0x00000003   PAD
    0x200000f4   0x00000038   Data   RW         1051    .data               sd_systemapp.o
    0x2000012c   0x00000006   Data   RW         1242    .data               ff.o
    0x20000132   0x00000001   Data   RW         1513    .data               SY03_CRYPT.lib(algbase.o)
    0x20000133   0x00000001   PAD
    0x20000134   0x00000030   Data   RW         1671    .data               SY03_CRYPT.lib(nn.o)
    0x20000164   0x00000006   Data   RW         1780    .data               SY06_FwLib.lib(filesystem.o)
    0x2000016a   0x00000002   PAD
    0x2000016c   0x00000020   Zero   RW          574    .bss                swps.o
    0x2000018c   0x00000018   Zero   RW          640    .bss                uart.o
    0x200001a4   0x00000004   PAD
    0x200001a8   0x00000030   Zero   RW          822    .bss                sdi.o
    0x200001d8   0x0000000c   Zero   RW          875    .bss                ctrlitem.o
    0x200001e4   0x00000f38   Zero   RW          983    .bss                command.o
    0x2000111c   0x00001018   Zero   RW         1003    .bss                sdmemacc.o
    0x20002134   0x00000100   Zero   RW         1028    .bss                log.o
    0x20002234   0x0000001c   Zero   RW         1049    .bss                sd_systemapp.o
    0x20002250   0x00000060   Zero   RW         2415    .bss                c_p.l(libspace.o)


    Execution Region STACK (Base: 0x20002800, Size: 0x00001800, Max: 0x00001800, ABSOLUTE, UNINIT)

    Base Addr    Size         Type   Attr      Idx    E Section Name        Object

    0x20002800   0x00000000   Data   RW         2536    linker$$defined$$symbols  anon$$obj.o
    0x20002800   0x00001800   Zero   RW            1    STACK.bss           anon$$obj.o


    Execution Region HEAP_TOP (Base: 0x20002800, Size: 0x00000000, Max: 0x00000000, ABSOLUTE, UNINIT)

    Base Addr    Size         Type   Attr      Idx    E Section Name        Object

    0x20002800   0x00000000   Zero   RW           21    HEAP_TOP            startup_sy03.o


    Execution Region HEAP (Base: 0x20002800, Size: 0x00000000, Max: 0x00000000, ABSOLUTE, UNINIT)

    Base Addr    Size         Type   Attr      Idx    E Section Name        Object

    0x20002800   0x00000000   Data   RW         2537    linker$$defined$$symbols  anon$$obj.o
    0x20002800   0x00000000   Zero   RW            2    HEAP.bss            anon$$obj.o


    Execution Region HEAP_BOTTOM (Base: 0x20002800, Size: 0x00000000, Max: 0x00000000, ABSOLUTE, UNINIT)

    Base Addr    Size         Type   Attr      Idx    E Section Name        Object

    0x20002800   0x00000000   Zero   RW           20    HEAP_BOTTOM         startup_sy03.o


    Execution Region STACK_TOP (Base: 0x20004000, Size: 0x00000000, Max: 0x00000000, ABSOLUTE, UNINIT)

    Base Addr    Size         Type   Attr      Idx    E Section Name        Object

    0x20004000   0x00000000   Zero   RW           19    STACK_TOP           startup_sy03.o



  Load Region LR$$.ARM.__AT_0x20008C00 (Base: 0x20008c00, Size: 0x00000000, Max: 0x00000100, ABSOLUTE)

    Execution Region ER$$.ARM.__AT_0x20008C00 (Base: 0x20008c00, Size: 0x00000100, Max: 0x00000100, ABSOLUTE, UNINIT)

    Base Addr    Size         Type   Attr      Idx    E Section Name        Object

    0x20008c00   0x00000100   Zero   RW          297    .ARM.__AT_0x20008C00  sy03_regs.o



  Load Region LR$$.ARM.__AT_0x40000000 (Base: 0x40000000, Size: 0x00000000, Max: 0x00000060, ABSOLUTE)

    Execution Region ER$$.ARM.__AT_0x40000000 (Base: 0x40000000, Size: 0x00000060, Max: 0x00000060, ABSOLUTE, UNINIT)

    Base Addr    Size         Type   Attr      Idx    E Section Name        Object

    0x40000000   0x00000060   Zero   RW          298    .ARM.__AT_0x40000000  sy03_regs.o



  Load Region LR$$.ARM.__AT_0x40004000 (Base: 0x40004000, Size: 0x00000000, Max: 0x000000f0, ABSOLUTE)

    Execution Region ER$$.ARM.__AT_0x40004000 (Base: 0x40004000, Size: 0x000000f0, Max: 0x000000f0, ABSOLUTE, UNINIT)

    Base Addr    Size         Type   Attr      Idx    E Section Name        Object

    0x40004000   0x000000f0   Zero   RW          299    .ARM.__AT_0x40004000  sy03_regs.o



  Load Region LR$$.ARM.__AT_0x40008000 (Base: 0x40008000, Size: 0x00000000, Max: 0x0000000c, ABSOLUTE)

    Execution Region ER$$.ARM.__AT_0x40008000 (Base: 0x40008000, Size: 0x0000000c, Max: 0x0000000c, ABSOLUTE, UNINIT)

    Base Addr    Size         Type   Attr      Idx    E Section Name        Object

    0x40008000   0x0000000c   Zero   RW          300    .ARM.__AT_0x40008000  sy03_regs.o



  Load Region LR$$.ARM.__AT_0x40014000 (Base: 0x40014000, Size: 0x00000000, Max: 0x00000028, ABSOLUTE)

    Execution Region ER$$.ARM.__AT_0x40014000 (Base: 0x40014000, Size: 0x00000028, Max: 0x00000028, ABSOLUTE, UNINIT)

    Base Addr    Size         Type   Attr      Idx    E Section Name        Object

    0x40014000   0x00000028   Zero   RW          301    .ARM.__AT_0x40014000  sy03_regs.o



  Load Region LR$$.ARM.__AT_0x40018000 (Base: 0x40018000, Size: 0x00000000, Max: 0x0000002c, ABSOLUTE)

    Execution Region ER$$.ARM.__AT_0x40018000 (Base: 0x40018000, Size: 0x0000002c, Max: 0x0000002c, ABSOLUTE, UNINIT)

    Base Addr    Size         Type   Attr      Idx    E Section Name        Object

    0x40018000   0x0000002c   Zero   RW          302    .ARM.__AT_0x40018000  sy03_regs.o



  Load Region LR$$.ARM.__AT_0x40020000 (Base: 0x40020000, Size: 0x00000000, Max: 0x0000000c, ABSOLUTE)

    Execution Region ER$$.ARM.__AT_0x40020000 (Base: 0x40020000, Size: 0x0000000c, Max: 0x0000000c, ABSOLUTE, UNINIT)

    Base Addr    Size         Type   Attr      Idx    E Section Name        Object

    0x40020000   0x0000000c   Zero   RW          303    .ARM.__AT_0x40020000  sy03_regs.o



  Load Region LR$$.ARM.__AT_0x40024000 (Base: 0x40024000, Size: 0x00000000, Max: 0x0000000c, ABSOLUTE)

    Execution Region ER$$.ARM.__AT_0x40024000 (Base: 0x40024000, Size: 0x0000000c, Max: 0x0000000c, ABSOLUTE, UNINIT)

    Base Addr    Size         Type   Attr      Idx    E Section Name        Object

    0x40024000   0x0000000c   Zero   RW          304    .ARM.__AT_0x40024000  sy03_regs.o



  Load Region LR$$.ARM.__AT_0x40028000 (Base: 0x40028000, Size: 0x00000000, Max: 0x00000100, ABSOLUTE)

    Execution Region ER$$.ARM.__AT_0x40028000 (Base: 0x40028000, Size: 0x00000100, Max: 0x00000100, ABSOLUTE, UNINIT)

    Base Addr    Size         Type   Attr      Idx    E Section Name        Object

    0x40028000   0x00000100   Zero   RW          305    .ARM.__AT_0x40028000  sy03_regs.o



  Load Region LR$$.ARM.__AT_0x4002C000 (Base: 0x4002c000, Size: 0x00000000, Max: 0x00000028, ABSOLUTE)

    Execution Region ER$$.ARM.__AT_0x4002C000 (Base: 0x4002c000, Size: 0x00000028, Max: 0x00000028, ABSOLUTE, UNINIT)

    Base Addr    Size         Type   Attr      Idx    E Section Name        Object

    0x4002c000   0x00000028   Zero   RW          306    .ARM.__AT_0x4002C000  sy03_regs.o



  Load Region LR$$.ARM.__AT_0x40030000 (Base: 0x40030000, Size: 0x00000000, Max: 0x00000028, ABSOLUTE)

    Execution Region ER$$.ARM.__AT_0x40030000 (Base: 0x40030000, Size: 0x00000028, Max: 0x00000028, ABSOLUTE, UNINIT)

    Base Addr    Size         Type   Attr      Idx    E Section Name        Object

    0x40030000   0x00000028   Zero   RW          307    .ARM.__AT_0x40030000  sy03_regs.o



  Load Region LR$$.ARM.__AT_0x40034000 (Base: 0x40034000, Size: 0x00000000, Max: 0x0000002c, ABSOLUTE)

    Execution Region ER$$.ARM.__AT_0x40034000 (Base: 0x40034000, Size: 0x0000002c, Max: 0x0000002c, ABSOLUTE, UNINIT)

    Base Addr    Size         Type   Attr      Idx    E Section Name        Object

    0x40034000   0x0000002c   Zero   RW          308    .ARM.__AT_0x40034000  sy03_regs.o



  Load Region LR$$.ARM.__AT_0x40038000 (Base: 0x40038000, Size: 0x00000000, Max: 0x0000002c, ABSOLUTE)

    Execution Region ER$$.ARM.__AT_0x40038000 (Base: 0x40038000, Size: 0x0000002c, Max: 0x0000002c, ABSOLUTE, UNINIT)

    Base Addr    Size         Type   Attr      Idx    E Section Name        Object

    0x40038000   0x0000002c   Zero   RW          309    .ARM.__AT_0x40038000  sy03_regs.o



  Load Region LR$$.ARM.__AT_0x4003C000 (Base: 0x4003c000, Size: 0x00000000, Max: 0x00000044, ABSOLUTE)

    Execution Region ER$$.ARM.__AT_0x4003C000 (Base: 0x4003c000, Size: 0x00000044, Max: 0x00000044, ABSOLUTE, UNINIT)

    Base Addr    Size         Type   Attr      Idx    E Section Name        Object

    0x4003c000   0x00000044   Zero   RW          310    .ARM.__AT_0x4003C000  sy03_regs.o



  Load Region LR$$.ARM.__AT_0x40040000 (Base: 0x40040000, Size: 0x00000000, Max: 0x00000088, ABSOLUTE)

    Execution Region ER$$.ARM.__AT_0x40040000 (Base: 0x40040000, Size: 0x00000088, Max: 0x00000088, ABSOLUTE, UNINIT)

    Base Addr    Size         Type   Attr      Idx    E Section Name        Object

    0x40040000   0x00000088   Zero   RW          311    .ARM.__AT_0x40040000  sy03_regs.o



  Load Region LR$$.ARM.__AT_0x40044000 (Base: 0x40044000, Size: 0x00000000, Max: 0x00000008, ABSOLUTE)

    Execution Region ER$$.ARM.__AT_0x40044000 (Base: 0x40044000, Size: 0x00000008, Max: 0x00000008, ABSOLUTE, UNINIT)

    Base Addr    Size         Type   Attr      Idx    E Section Name        Object

    0x40044000   0x00000008   Zero   RW          312    .ARM.__AT_0x40044000  sy03_regs.o



  Load Region LR$$.ARM.__AT_0x40048000 (Base: 0x40048000, Size: 0x00000000, Max: 0x00000018, ABSOLUTE)

    Execution Region ER$$.ARM.__AT_0x40048000 (Base: 0x40048000, Size: 0x00000018, Max: 0x00000018, ABSOLUTE, UNINIT)

    Base Addr    Size         Type   Attr      Idx    E Section Name        Object

    0x40048000   0x00000018   Zero   RW          313    .ARM.__AT_0x40048000  sy03_regs.o



  Load Region LR$$.ARM.__AT_0x40050000 (Base: 0x40050000, Size: 0x00000000, Max: 0x00000010, ABSOLUTE)

    Execution Region ER$$.ARM.__AT_0x40050000 (Base: 0x40050000, Size: 0x00000010, Max: 0x00000010, ABSOLUTE, UNINIT)

    Base Addr    Size         Type   Attr      Idx    E Section Name        Object

    0x40050000   0x00000010   Zero   RW          314    .ARM.__AT_0x40050000  sy03_regs.o



  Load Region LR$$.ARM.__AT_0x40054000 (Base: 0x40054000, Size: 0x00000000, Max: 0x00000034, ABSOLUTE)

    Execution Region ER$$.ARM.__AT_0x40054000 (Base: 0x40054000, Size: 0x00000034, Max: 0x00000034, ABSOLUTE, UNINIT)

    Base Addr    Size         Type   Attr      Idx    E Section Name        Object

    0x40054000   0x00000034   Zero   RW          315    .ARM.__AT_0x40054000  sy03_regs.o



  Load Region LR$$.ARM.__AT_0x40058000 (Base: 0x40058000, Size: 0x00000000, Max: 0x00000028, ABSOLUTE)

    Execution Region ER$$.ARM.__AT_0x40058000 (Base: 0x40058000, Size: 0x00000028, Max: 0x00000028, ABSOLUTE, UNINIT)

    Base Addr    Size         Type   Attr      Idx    E Section Name        Object

    0x40058000   0x00000028   Zero   RW          316    .ARM.__AT_0x40058000  sy03_regs.o



  Load Region LR$$.ARM.__AT_0x4005C000 (Base: 0x4005c000, Size: 0x00000000, Max: 0x00000010, ABSOLUTE)

    Execution Region ER$$.ARM.__AT_0x4005C000 (Base: 0x4005c000, Size: 0x00000010, Max: 0x00000010, ABSOLUTE, UNINIT)

    Base Addr    Size         Type   Attr      Idx    E Section Name        Object

    0x4005c000   0x00000010   Zero   RW          317    .ARM.__AT_0x4005C000  sy03_regs.o



  Load Region LR$$.ARM.__AT_0x40060000 (Base: 0x40060000, Size: 0x00000000, Max: 0x00000008, ABSOLUTE)

    Execution Region ER$$.ARM.__AT_0x40060000 (Base: 0x40060000, Size: 0x00000008, Max: 0x00000008, ABSOLUTE, UNINIT)

    Base Addr    Size         Type   Attr      Idx    E Section Name        Object

    0x40060000   0x00000008   Zero   RW          318    .ARM.__AT_0x40060000  sy03_regs.o



  Load Region LR$$.ARM.__AT_0x4006C000 (Base: 0x4006c000, Size: 0x00000000, Max: 0x00000028, ABSOLUTE)

    Execution Region ER$$.ARM.__AT_0x4006C000 (Base: 0x4006c000, Size: 0x00000028, Max: 0x00000028, ABSOLUTE, UNINIT)

    Base Addr    Size         Type   Attr      Idx    E Section Name        Object

    0x4006c000   0x00000028   Zero   RW          319    .ARM.__AT_0x4006C000  sy03_regs.o



  Load Region LR$$.ARM.__AT_0x50000000 (Base: 0x50000000, Size: 0x00000000, Max: 0x0000028c, ABSOLUTE)

    Execution Region ER$$.ARM.__AT_0x50000000 (Base: 0x50000000, Size: 0x0000028c, Max: 0x0000028c, ABSOLUTE, UNINIT)

    Base Addr    Size         Type   Attr      Idx    E Section Name        Object

    0x50000000   0x0000028c   Zero   RW          320    .ARM.__AT_0x50000000  sy03_regs.o



  Load Region LR$$.ARM.__AT_0x50010000 (Base: 0x50010000, Size: 0x00000000, Max: 0x00000034, ABSOLUTE)

    Execution Region ER$$.ARM.__AT_0x50010000 (Base: 0x50010000, Size: 0x00000034, Max: 0x00000034, ABSOLUTE, UNINIT)

    Base Addr    Size         Type   Attr      Idx    E Section Name        Object

    0x50010000   0x00000034   Zero   RW          321    .ARM.__AT_0x50010000  sy03_regs.o



  Load Region LR$$.ARM.__AT_0x50020000 (Base: 0x50020000, Size: 0x00000000, Max: 0x00000038, ABSOLUTE)

    Execution Region ER$$.ARM.__AT_0x50020000 (Base: 0x50020000, Size: 0x00000038, Max: 0x00000038, ABSOLUTE, UNINIT)

    Base Addr    Size         Type   Attr      Idx    E Section Name        Object

    0x50020000   0x00000038   Zero   RW          322    .ARM.__AT_0x50020000  sy03_regs.o


==============================================================================

Image component sizes


      Code (inc. data)   RO Data    RW Data    ZI Data      Debug   Object Name

      1720        220         42          3          0       6856   bulkitem.o
       276         20          0         16          0       2894   bulkusb.o
     46832       7668       1804         16       3896      62537   command.o
       452         78         13          0          0       2105   commandex.o
         0          0          0          0          0       4216   core_cm0.o
      1212         44        134          0         12       4820   ctrlitem.o
       104          8         52          0          0        998   ctrlusb.o
       540         96          0          0          0       4631   diskio.o
      1284         90          0          0          0      12363   efc.o
      8752        130          0          6          0      28171   ff.o
       172         48          0          0        256       1950   log.o
       328        196          0          0          0      10673   main.o
        58          0          0          8          0       2788   retarget.o
        48          0          0          0          0        595   sci.o
      1120        112          0          4          0       7593   scm.o
      2884        560         81         56         28       9394   sd_systemapp.o
      4940        104          0          1         48      16413   sdi.o
      1768        302       1559         13       4120       3505   sdmemacc.o
      2864        154          0         16          0       3380   sdsi.o
       216         26          0          1          0       1114   serial.o
      1060         26          0          4          0       4790   sflash.o
        80         16          0          0          0       1604   spi.o
      1580        122          0          2          0       7716   sqi.o
       964         32          0          9          0       6420   ssi.o
        88         38        256          0          0        592   startup_sy03.o
         0          0          0          0          0        253   swpm.o
      1084         48          0          3         32       2920   swps.o
         0          0          0          0       2304      42403   sy03_regs.o
        60         12          0          4          0      36208   system_sy03.o
       296         12          0          0          0       1865   trng.o
      1664         42          0          0         24       4215   uart.o
      2828         84          0          1          0       8106   usbbase.o
       388         28          0          7          0       1340   usbprotocol.o
       752         26          0         12          0       5539   vpwm.o
      1096          8          0          4          0       5173   xflash.o

    ----------------------------------------------------------------------
     87512      10350       3973        194      16868     316140   Object Totals
         0          0         32          0       6144          0   (incl. Generated)
         2          0          0          8          4          0   (incl. Padding)

    ----------------------------------------------------------------------

      Code (inc. data)   RO Data    RW Data    ZI Data      Debug   Library Member Name

      1504         48       4136          0          0       4316   aes.o
       168         24          0          1          0       1916   algbase.o
       342          0          0          0          0       2335   bigdigits.o
       984         14       1140          0          0       5664   elliptic-ffp.o
      3036         92        380          0          0       6877   hardecc.o
      4416        130          0         48          0      18314   nn.o
       756         10        128          0          0       3018   prime.o
      1262          0          0          0          0       3097   r_keygen.o
        22          0          0          0          0        890   r_random.o
      5422         44          0          0          0       5165   sha-1.o
     12024        294         64          0          0       5041   sha-256.o
      1620         12         16          0          0       4943   sm1.o
      8454          0          0          0          0      19243   sm2.o
       652          6          0          0          0       5068   sm3.o
      2100         14        400          0          0      11368   sms4.o
      1128         18        192          0          0       3464   ssf33.o
      1438          0          0          0          0       4535   ssf33alg.o
      3600          6          0          0          0       8276   syrsa.o
       532         86          0          0         52       6454   romfunc.o
      3944        146          0          6          0      21809   filesystem.o
        28          6          0          0          0         84   __2printf.o
         8          0          0          0          0         68   __main.o
       392          4         17          0          0         76   __printf_flags_ss_wp.o
        14          0          0          0          0         60   __printf_wp.o
        60          8          0          0          0          0   __scatter.o
        26          0          0          0          0          0   __scatter_copy.o
        28          0          0          0          0          0   __scatter_zi.o
        10          0          0          0          0          0   _printf_a.o
        10          0          0          0          0          0   _printf_c.o
        46          0          0          0          0        100   _printf_char.o
        48          6          0          0          0         88   _printf_char_common.o
        40          6          0          0          0         72   _printf_char_file.o
        40          0          0          0          0         60   _printf_charcount.o
        10          0          0          0          0          0   _printf_d.o
       108         18          0          0          0         76   _printf_dec.o
        10          0          0          0          0          0   _printf_e.o
        10          0          0          0          0          0   _printf_f.o
      1044         12          0          0          0        176   _printf_fp_dec.o
       136         16          0          0          0         76   _printf_fp_infnan.o
        10          0          0          0          0          0   _printf_g.o
       152          4         40          0          0        148   _printf_hex_int_ll_ptr.o
        10          0          0          0          0          0   _printf_i.o
       176          0          0          0          0         84   _printf_intcommon.o
        10          0          0          0          0          0   _printf_l.o
        10          0          0          0          0          0   _printf_lc.o
        10          0          0          0          0          0   _printf_ll.o
        10          0          0          0          0          0   _printf_lld.o
        10          0          0          0          0          0   _printf_lli.o
        10          0          0          0          0          0   _printf_llo.o
        10          0          0          0          0          0   _printf_llu.o
        10          0          0          0          0          0   _printf_llx.o
       112         18          0          0          0         76   _printf_longlong_dec.o
        10          0          0          0          0          0   _printf_ls.o
        10          0          0          0          0          0   _printf_n.o
        10          0          0          0          0          0   _printf_o.o
       112         10          0          0          0        112   _printf_oct_int_ll.o
        10          0          0          0          0          0   _printf_p.o
        78          0          0          0          0        100   _printf_pad.o
         2          0          0          0          0          0   _printf_percent.o
         4          0          0          0          0          0   _printf_percent_end.o
        10          0          0          0          0          0   _printf_s.o
        82          0          0          0          0         72   _printf_str.o
        36          0          0          0          0         76   _printf_truncate.o
        10          0          0          0          0          0   _printf_u.o
        46          0          0          0          0        100   _printf_wchar.o
       188          6          8          0          0         80   _printf_wctomb.o
        10          0          0          0          0          0   _printf_x.o
        16          0          0          0          0         60   _snputc.o
        10          0          0          0          0         60   _sputc.o
        68          0          0          0          0         72   _wcrtomb.o
        18          0          0          0          0         68   aeabi_memset.o
       346          0          0          0          0         92   aeabi_sdiv.o
       204          4        148          0          0         80   bigflt0.o
      1192         12          0          0          0        240   btod.o
        52          4          0          0          0         72   c89vsnprintf.o
        12          0          0          0          0         64   exit.o
         6          0          0          0          0        136   heapauxi.o
        44         10        272          0          0         76   lc_ctype_c.o
        44         10         28          0          0         76   lc_numeric_c.o
         6          0          0          0          0          0   libinit.o
        30          0          0          0          0          0   libinit2.o
         2          0          0          0          0          0   libshutdown.o
         2          0          0          0          0          0   libshutdown2.o
         8          4          0          0         96         68   libspace.o
        32          0          0          0          0         68   llshl.o
       122          0          0          0          0         72   lludiv10.o
        34          0          0          0          0         68   llushr.o
        90          0          0          0          0         68   memcmp.o
        16          4          0          0          0         76   rt_ctype_table.o
         8          4          0          0          0         68   rt_locale_intlibspace.o
        64          0          0          0          0        108   rt_memclr.o
       186          0          0          0          0        144   rt_memcpy.o
         0          0          0          0          0          0   rtentry.o
        12          0          0          0          0          0   rtentry2.o
         6          0          0          0          0          0   rtentry4.o
         2          0          0          0          0          0   rtexit.o
        10          0          0          0          0          0   rtexit2.o
        40          0          0          0          0         60   rtudiv10.o
        24          0          0          0          0         60   strcat.o
       136          4          0          0          0         72   strcmp.o
        76          6          0          0          0         72   strcpy.o
        68          6          0          0          0         72   strlen.o
        62          0          0          0          0         80   sys_stackheap_outer.o
        34          0          0          0          0         60   uread4.o
         2          0          0          0          0         68   use_no_semi.o
        16          0          0          0          0         60   uwrite4.o
      1080         30        128          0          0        108   ddiv.o
        72         10          0          0          0         68   dfixui.o
        86          0          0          0          0         92   dflti.o
       656         22          0          0          0         84   dmul.o
        16          4          0          0          0         76   printf1.o
         0          0          0          0          0          0   usenofp.o
        44          6          0          0          0         60   fpclassify.o

    ----------------------------------------------------------------------
     61708       1198       7103         58        148     146505   Library Totals
        24          0          6          3          0          0   (incl. Padding)

    ----------------------------------------------------------------------

      Code (inc. data)   RO Data    RW Data    ZI Data      Debug   Library Name

     48928        712       6456         49          0     113530   SY03_CRYPT.lib
       532         86          0          0         52       6454   SY03_RomFunc.lib
      3944        146          0          6          0      21809   SY06_FwLib.lib
      6326        182        513          0         96       4224   c_p.l
      1910         66        128          0          0        428   fz_ps.l
        44          6          0          0          0         60   m_ps.l

    ----------------------------------------------------------------------
     61708       1198       7103         58        148     146505   Library Totals

    ----------------------------------------------------------------------

==============================================================================


      Code (inc. data)   RO Data    RW Data    ZI Data      Debug   

    149220      11548      11076        252      17016     456397   Grand Totals
    149220      11548      11076        252      17016     456397   ELF Image Totals
    149220      11548      11076        252          0          0   ROM Totals

==============================================================================

    Total RO  Size (Code + RO Data)               160296 ( 156.54kB)
    Total RW  Size (RW Data + ZI Data)             17268 (  16.86kB)
    Total ROM Size (Code + RO Data + RW Data)     160548 ( 156.79kB)

==============================================================================

